

HI-TECH Software PIC LITE Macro Assembler V9.83 build 10920 
                                                                                               Sun Sep 08 19:18:41 2019

HI-TECH Software Omniscient Code Generator (Lite mode) build 10920
     1  0000                     opt subtitle "HI-TECH Software Omniscient Code Generator (Lite mode) build 10920"
     2                           
     3                           opt pagewidth 120
     4                           
     5                           	opt lm
     6                           
     7                           	processor	16F690
     8                           clrc	macro
     9                           	bcf	3,0
    10  0000                     	endm
    11                           clrz	macro
    12                           	bcf	3,2
    13  0000                     	endm
    14                           setc	macro
    15                           	bsf	3,0
    16  0000                     	endm
    17                           setz	macro
    18                           	bsf	3,2
    19  0000                     	endm
    20                           skipc	macro
    21                           	btfss	3,0
    22  0000                     	endm
    23                           skipz	macro
    24                           	btfss	3,2
    25  0000                     	endm
    26                           skipnc	macro
    27                           	btfsc	3,0
    28  0000                     	endm
    29                           skipnz	macro
    30                           	btfsc	3,2
    31  0000                     	endm
    32  0000                     indf	equ	0
    33  0000                     indf0	equ	0
    34  0002                     pc	equ	2
    35  0002                     pcl	equ	2
    36  0003                     status	equ	3
    37  0004                     fsr	equ	4
    38  0004                     fsr0	equ	4
    39  0001                     c	equ	1
    40  0000                     z	equ	0
    41  000A                     pclath	equ	10
    42                           # 14 "main.c"
    43                           	psect config,class=CONFIG,delta=2 ;#
    44                           # 14 "main.c"
    45  2007  30C4               	dw 0x3FFC & 0x3FF7 & 0x3FEF & 0x3FDF & 0x3FFF & 0x3CFF & 0x3BFF & 0x37FF ;#
    46                           	FNCALL	_main,_init
    47                           	FNCALL	_main,_Mode1
    48                           	FNCALL	_main,_Mode2
    49                           	FNCALL	_main,_rand
    50                           	FNCALL	_main,___awmod
    51                           	FNCALL	_main,_Mode3
    52                           	FNCALL	_main,_Mode4
    53                           	FNCALL	_main,_Mode5
    54                           	FNCALL	_main,_Mode6
    55                           	FNCALL	_Mode6,_rand
    56                           	FNCALL	_Mode6,___awmod
    57                           	FNCALL	_Mode6,_ChangeLED
    58                           	FNCALL	_Mode5,_rand
    59                           	FNCALL	_Mode5,___awmod
    60                           	FNCALL	_Mode5,_ChangeLED
    61                           	FNCALL	_Mode3,_rand
    62                           	FNCALL	_Mode3,___awmod
    63                           	FNCALL	_Mode3,_ChangeLED
    64                           	FNCALL	_Mode3,_Mode3
    65                           	FNCALL	_Mode1,_ChangeLED
    66                           	FNCALL	_rand,_srand
    67                           	FNCALL	_rand,___lmul
    68                           	FNROOT	_main
    69                           	FNCALL	_ISR,i1_main
    70                           	FNCALL	i1_main,i1_init
    71                           	FNCALL	i1_main,i1_Mode1
    72                           	FNCALL	i1_main,i1_Mode2
    73                           	FNCALL	i1_main,i1_rand
    74                           	FNCALL	i1_main,i1___awmod
    75                           	FNCALL	i1_main,i1_Mode3
    76                           	FNCALL	i1_main,i1_Mode4
    77                           	FNCALL	i1_main,i1_Mode5
    78                           	FNCALL	i1_main,i1_Mode6
    79                           	FNCALL	i1_Mode6,i1_rand
    80                           	FNCALL	i1_Mode6,i1___awmod
    81                           	FNCALL	i1_Mode6,i1_ChangeLED
    82                           	FNCALL	i1_Mode5,i1_rand
    83                           	FNCALL	i1_Mode5,i1___awmod
    84                           	FNCALL	i1_Mode5,i1_ChangeLED
    85                           	FNCALL	i1_Mode3,i1_rand
    86                           	FNCALL	i1_Mode3,i1___awmod
    87                           	FNCALL	i1_Mode3,i1_ChangeLED
    88                           	FNCALL	i1_Mode3,i1_Mode3
    89                           	FNCALL	i1_Mode1,i1_ChangeLED
    90                           	FNCALL	i1_rand,i1_srand
    91                           	FNCALL	i1_rand,i1___lmul
    92                           	FNCALL	intlevel1,_ISR
    93                           	global	intlevel1
    94                           	FNROOT	intlevel1
    95                           	global	_timesArray
    96                           psect	strings,class=STRING,delta=2
    97                           global __pstrings
    98  074E                     __pstrings:
    99                           ;	global	stringdir,stringtab,__stringbase
   100  074E                     stringtab:
   101                           ;	String table - string pointers are 1 byte each
   102  074E                     stringcode:stringdir:
      + 074E                     stringdir:	
   103  074E  3007               movlw high(stringdir)
   104  074F  008A               movwf pclath
   105  0750  0804               movf fsr,w
   106  0751  0A84               incf fsr
   107  0752  0782               	addwf pc
   108  0753                     __stringbase:
   109  0753  3400               	retlw	0
   110                           psect	strings
   111                           	file	"main.c"
   112                           	line	62
   113  0754                     _timesArray:
   114  0754  3400               	retlw	0
   115  0755  3400               	retlw	0
   116                           
   117  0756  3401               	retlw	01h
   118  0757  3400               	retlw	0
   119                           
   120  0758  3402               	retlw	02h
   121  0759  3400               	retlw	0
   122                           
   123  075A  3403               	retlw	03h
   124  075B  3400               	retlw	0
   125                           
   126  075C  3404               	retlw	04h
   127  075D  3400               	retlw	0
   128                           
   129  075E  3405               	retlw	05h
   130  075F  3400               	retlw	0
   131                           
   132  0760  3406               	retlw	06h
   133  0761  3400               	retlw	0
   134                           
   135  0762  3407               	retlw	07h
   136  0763  3400               	retlw	0
   137                           
   138  0764  3408               	retlw	08h
   139  0765  3400               	retlw	0
   140                           
   141  0766  3409               	retlw	09h
   142  0767  3400               	retlw	0
   143                           
   144  0768  340A               	retlw	0Ah
   145  0769  3400               	retlw	0
   146                           
   147  076A  340B               	retlw	0Bh
   148  076B  3400               	retlw	0
   149                           
   150  076C  340C               	retlw	0Ch
   151  076D  3400               	retlw	0
   152                           
   153  076E  340D               	retlw	0Dh
   154  076F  3400               	retlw	0
   155                           
   156  0770  340E               	retlw	0Eh
   157  0771  3400               	retlw	0
   158                           
   159  0772  340F               	retlw	0Fh
   160  0773  3400               	retlw	0
   161                           
   162  0774  3410               	retlw	010h
   163  0775  3400               	retlw	0
   164                           
   165  0776  3411               	retlw	011h
   166  0777  3400               	retlw	0
   167                           
   168  0778  3412               	retlw	012h
   169  0779  3400               	retlw	0
   170                           
   171  077A  3413               	retlw	013h
   172  077B  3400               	retlw	0
   173                           
   174  077C  3414               	retlw	014h
   175  077D  3400               	retlw	0
   176                           
   177                           	global	_led0Colors
   178                           psect	strings
   179                           	file	"main.c"
   180                           	line	42
   181  077E                     _led0Colors:
   182  077E  3480               	retlw	080h
   183  077F  3400               	retlw	0
   184                           
   185  0780  3440               	retlw	040h
   186  0781  3400               	retlw	0
   187                           
   188  0782  3408               	retlw	08h
   189  0783  3400               	retlw	0
   190                           
   191  0784  34C0               	retlw	0C0h
   192  0785  3400               	retlw	0
   193                           
   194  0786  3448               	retlw	048h
   195  0787  3400               	retlw	0
   196                           
   197  0788  3488               	retlw	088h
   198  0789  3400               	retlw	0
   199                           
   200  078A  34C8               	retlw	0C8h
   201  078B  3400               	retlw	0
   202                           
   203  078C  3480               	retlw	080h
   204  078D  3400               	retlw	0
   205                           
   206                           	global	_led1Colors
   207                           psect	strings
   208                           	file	"main.c"
   209                           	line	51
   210  078E                     _led1Colors:
   211  078E  3404               	retlw	04h
   212  078F  3400               	retlw	0
   213                           
   214  0790  3402               	retlw	02h
   215  0791  3400               	retlw	0
   216                           
   217  0792  3401               	retlw	01h
   218  0793  3400               	retlw	0
   219                           
   220  0794  3406               	retlw	06h
   221  0795  3400               	retlw	0
   222                           
   223  0796  3403               	retlw	03h
   224  0797  3400               	retlw	0
   225                           
   226  0798  3405               	retlw	05h
   227  0799  3400               	retlw	0
   228                           
   229  079A  3407               	retlw	07h
   230  079B  3400               	retlw	0
   231                           
   232  079C  3404               	retlw	04h
   233  079D  3400               	retlw	0
   234                           
   235                           	global	_led2Colors
   236                           psect	strings
   237                           	file	"main.c"
   238                           	line	60
   239  079E                     _led2Colors:
   240  079E  3440               	retlw	040h
   241  079F  3400               	retlw	0
   242                           
   243  07A0  3420               	retlw	020h
   244  07A1  3400               	retlw	0
   245                           
   246  07A2  3410               	retlw	010h
   247  07A3  3400               	retlw	0
   248                           
   249  07A4  3460               	retlw	060h
   250  07A5  3400               	retlw	0
   251                           
   252  07A6  3430               	retlw	030h
   253  07A7  3400               	retlw	0
   254                           
   255  07A8  3452               	retlw	052h
   256  07A9  3400               	retlw	0
   257                           
   258  07AA  3470               	retlw	070h
   259  07AB  3400               	retlw	0
   260                           
   261  07AC  3440               	retlw	040h
   262  07AD  3400               	retlw	0
   263                           
   264                           	global	_blue0
   265                           psect	strings
   266                           	file	"main.c"
   267                           	line	37
   268  07AE                     _blue0:
   269  07AE  3408               	retlw	08h
   270  07AF  3400               	retlw	0
   271                           
   272                           	global	_blue1
   273                           psect	strings
   274                           	file	"main.c"
   275                           	line	46
   276  07B0                     _blue1:
   277  07B0  3401               	retlw	01h
   278  07B1  3400               	retlw	0
   279                           
   280                           	global	_blue2
   281                           psect	strings
   282                           	file	"main.c"
   283                           	line	55
   284  07B2                     _blue2:
   285  07B2  3410               	retlw	010h
   286  07B3  3400               	retlw	0
   287                           
   288                           	global	_cyan0
   289                           psect	strings
   290                           	file	"main.c"
   291                           	line	39
   292  07B4                     _cyan0:
   293  07B4  3448               	retlw	048h
   294  07B5  3400               	retlw	0
   295                           
   296                           	global	_cyan1
   297                           psect	strings
   298                           	file	"main.c"
   299                           	line	48
   300  07B6                     _cyan1:
   301  07B6  3403               	retlw	03h
   302  07B7  3400               	retlw	0
   303                           
   304                           	global	_cyan2
   305                           psect	strings
   306                           	file	"main.c"
   307                           	line	57
   308  07B8                     _cyan2:
   309  07B8  3430               	retlw	030h
   310  07B9  3400               	retlw	0
   311                           
   312                           	global	_green0
   313                           psect	strings
   314                           	file	"main.c"
   315                           	line	36
   316  07BA                     _green0:
   317  07BA  3440               	retlw	040h
   318  07BB  3400               	retlw	0
   319                           
   320                           	global	_green1
   321                           psect	strings
   322                           	file	"main.c"
   323                           	line	45
   324  07BC                     _green1:
   325  07BC  3402               	retlw	02h
   326  07BD  3400               	retlw	0
   327                           
   328                           	global	_green2
   329                           psect	strings
   330                           	file	"main.c"
   331                           	line	54
   332  07BE                     _green2:
   333  07BE  3420               	retlw	020h
   334  07BF  3400               	retlw	0
   335                           
   336                           	global	_purple0
   337                           psect	strings
   338                           	file	"main.c"
   339                           	line	40
   340  07C0                     _purple0:
   341  07C0  3488               	retlw	088h
   342  07C1  3400               	retlw	0
   343                           
   344                           	global	_purple1
   345                           psect	strings
   346                           	file	"main.c"
   347                           	line	49
   348  07C2                     _purple1:
   349  07C2  3405               	retlw	05h
   350  07C3  3400               	retlw	0
   351                           
   352                           	global	_purple2
   353                           psect	strings
   354                           	file	"main.c"
   355                           	line	58
   356  07C4                     _purple2:
   357  07C4  3450               	retlw	050h
   358  07C5  3400               	retlw	0
   359                           
   360                           	global	_red0
   361                           psect	strings
   362                           	file	"main.c"
   363                           	line	35
   364  07C6                     _red0:
   365  07C6  3480               	retlw	080h
   366  07C7  3400               	retlw	0
   367                           
   368                           	global	_red1
   369                           psect	strings
   370                           	file	"main.c"
   371                           	line	44
   372  07C8                     _red1:
   373  07C8  3404               	retlw	04h
   374  07C9  3400               	retlw	0
   375                           
   376                           	global	_red2
   377                           psect	strings
   378                           	file	"main.c"
   379                           	line	53
   380  07CA                     _red2:
   381  07CA  3440               	retlw	040h
   382  07CB  3400               	retlw	0
   383                           
   384                           	global	_white0
   385                           psect	strings
   386                           	file	"main.c"
   387                           	line	41
   388  07CC                     _white0:
   389  07CC  34C8               	retlw	0C8h
   390  07CD  3400               	retlw	0
   391                           
   392                           	global	_white1
   393                           psect	strings
   394                           	file	"main.c"
   395                           	line	50
   396  07CE                     _white1:
   397  07CE  3407               	retlw	07h
   398  07CF  3400               	retlw	0
   399                           
   400                           	global	_white2
   401                           psect	strings
   402                           	file	"main.c"
   403                           	line	59
   404  07D0                     _white2:
   405  07D0  3470               	retlw	070h
   406  07D1  3400               	retlw	0
   407                           
   408                           	global	_yellow0
   409                           psect	strings
   410                           	file	"main.c"
   411                           	line	38
   412  07D2                     _yellow0:
   413  07D2  34C0               	retlw	0C0h
   414  07D3  3400               	retlw	0
   415                           
   416                           	global	_yellow1
   417                           psect	strings
   418                           	file	"main.c"
   419                           	line	47
   420  07D4                     _yellow1:
   421  07D4  3406               	retlw	06h
   422  07D5  3400               	retlw	0
   423                           
   424                           	global	_yellow2
   425                           psect	strings
   426                           	file	"main.c"
   427                           	line	56
   428  07D6                     _yellow2:
   429  07D6  3460               	retlw	060h
   430  07D7  3400               	retlw	0
   431                           
   432                           	global	_timesArray
   433                           	global	_led0Colors
   434                           	global	_led1Colors
   435                           	global	_led2Colors
   436                           	global	_blue0
   437                           	global	_blue1
   438                           	global	_blue2
   439                           	global	_cyan0
   440                           	global	_cyan1
   441                           	global	_cyan2
   442                           	global	_green0
   443                           	global	_green1
   444                           	global	_green2
   445                           	global	_purple0
   446                           	global	_purple1
   447                           	global	_purple2
   448                           	global	_red0
   449                           	global	_red1
   450                           	global	_red2
   451                           	global	_white0
   452                           	global	_white1
   453                           	global	_white2
   454                           	global	_yellow0
   455                           	global	_yellow1
   456                           	global	_yellow2
   457                           	global	_i1
   458                           	global	_randx
   459                           	global	_randf
   460                           	global	_PORTA
   461  0005                     _PORTA	set	5
   462                           	global	_CARRY
   463  0018                     _CARRY	set	24
   464                           	global	_GIE
   465  005F                     _GIE	set	95
   466                           	global	_INTE
   467  005C                     _INTE	set	92
   468                           	global	_INTF
   469  0059                     _INTF	set	89
   470                           	global	_PEIE
   471  005E                     _PEIE	set	94
   472                           	global	_RA2
   473  002A                     _RA2	set	42
   474                           	global	_OPTION
   475  0081                     _OPTION	set	129
   476                           	global	_TRISA
   477  0085                     _TRISA	set	133
   478                           	global	_TRISB
   479  0086                     _TRISB	set	134
   480                           	global	_TRISC
   481  0087                     _TRISC	set	135
   482                           	global	_ANSEL
   483  011E                     _ANSEL	set	286
   484                           	global	_ANSELH
   485  011F                     _ANSELH	set	287
   486                           	global	_CM1CON0
   487  0119                     _CM1CON0	set	281
   488                           	global	_CM2CON0
   489  011A                     _CM2CON0	set	282
   490                           	global	_EEADR
   491  010D                     _EEADR	set	269
   492                           	global	_EEDATA
   493  010C                     _EEDATA	set	268
   494                           	global	_EECON1
   495  018C                     _EECON1	set	396
   496                           	global	_EECON2
   497  018D                     _EECON2	set	397
   498                           	global	_RD
   499  0C60                     _RD	set	3168
   500                           	global	_WR
   501  0C61                     _WR	set	3169
   502                           	global	_WREN
   503  0C62                     _WREN	set	3170
   504                           	global	_PORTB
   505  0006                     _PORTB	set	6
   506                           	global	_PORTC
   507  0007                     _PORTC	set	7
   508                           	file	"C:\Users\Allen\AppData\Local\Temp\s1jg."
   509                           	line	#
   510                           psect cinit,class=CODE,delta=2
   511                           global start_initialization
   512  0A03                     start_initialization:
   513                           
   514                           psect	bssBANK0,class=BANK0,space=1
   515                           global __pbssBANK0
   516  0063                     __pbssBANK0:
   517  0063                     _i1:
   518  0063                            ds      2
   519                           
   520                           psect	bssBANK1,class=BANK1,space=1
   521                           global __pbssBANK1
   522  00EB                     __pbssBANK1:
   523  00EB                     _randx:
   524  00EB                            ds      4
   525                           
   526  00EF                     _randf:
   527  00EF                            ds      1
   528                           
   529                           ; Clear objects allocated to BANK0
   530                           psect cinit,class=CODE,delta=2
   531  0A03  01E3               	clrf	((__pbssBANK0)+0)&07Fh
   532  0A04  01E4               	clrf	((__pbssBANK0)+1)&07Fh
   533                           ; Clear objects allocated to BANK1
   534                           psect cinit,class=CODE,delta=2
   535  0A05  1683               	bsf	status, 5	;RP0=1, select bank1
   536  0A06  1303               	bcf	status, 6	;RP1=0, select bank1
   537  0A07  01EB               	clrf	((__pbssBANK1)+0)&07Fh
   538  0A08  01EC               	clrf	((__pbssBANK1)+1)&07Fh
   539  0A09  01ED               	clrf	((__pbssBANK1)+2)&07Fh
   540  0A0A  01EE               	clrf	((__pbssBANK1)+3)&07Fh
   541  0A0B  01EF               	clrf	((__pbssBANK1)+4)&07Fh
   542                           psect cinit,class=CODE,delta=2
   543                           global end_of_initialization
   544                           
   545                           ;End of C runtime variable initialization code
   546                           
   547  0A0C                     end_of_initialization:
   548  0A0C  0183               clrf status
   549  0A0D  158A  2E85         ljmp _main	;jump to C main() function
   550                           psect	cstackBANK1,class=BANK1,space=1
   551                           global __pcstackBANK1
   552  00A0                     __pcstackBANK1:
   553                           	global	??_Mode2
   554  00A0                     ??_Mode2:	; 0 bytes @ 0x0
   555                           	global	??_Mode4
   556  00A0                     ??_Mode4:	; 0 bytes @ 0x0
   557                           	global	??_init
   558  00A0                     ??_init:	; 0 bytes @ 0x0
   559                           	global	?_srand
   560  00A0                     ?_srand:	; 0 bytes @ 0x0
   561                           	global	?___lmul
   562  00A0                     ?___lmul:	; 4 bytes @ 0x0
   563                           	global	srand@x
   564  00A0                     srand@x:	; 2 bytes @ 0x0
   565                           	global	___lmul@multiplier
   566  00A0                     ___lmul@multiplier:	; 4 bytes @ 0x0
   567  00A0                     	ds	2
   568                           	global	??_srand
   569  00A2                     ??_srand:	; 0 bytes @ 0x2
   570  00A2                     	ds	2
   571                           	global	___lmul@multiplicand
   572  00A4                     ___lmul@multiplicand:	; 4 bytes @ 0x4
   573  00A4                     	ds	4
   574                           	global	??___lmul
   575  00A8                     ??___lmul:	; 0 bytes @ 0x8
   576  00A8                     	ds	1
   577                           	global	___lmul@product
   578  00A9                     ___lmul@product:	; 4 bytes @ 0x9
   579  00A9                     	ds	4
   580                           	global	?___awmod
   581  00AD                     ?___awmod:	; 2 bytes @ 0xD
   582                           	global	___awmod@divisor
   583  00AD                     ___awmod@divisor:	; 2 bytes @ 0xD
   584  00AD                     	ds	2
   585                           	global	___awmod@dividend
   586  00AF                     ___awmod@dividend:	; 2 bytes @ 0xF
   587  00AF                     	ds	2
   588                           	global	??___awmod
   589  00B1                     ??___awmod:	; 0 bytes @ 0x11
   590  00B1                     	ds	1
   591                           	global	___awmod@counter
   592  00B2                     ___awmod@counter:	; 1 bytes @ 0x12
   593  00B2                     	ds	1
   594                           	global	___awmod@sign
   595  00B3                     ___awmod@sign:	; 1 bytes @ 0x13
   596  00B3                     	ds	1
   597                           	global	?_rand
   598  00B4                     ?_rand:	; 2 bytes @ 0x14
   599  00B4                     	ds	2
   600                           	global	??_rand
   601  00B6                     ??_rand:	; 0 bytes @ 0x16
   602  00B6                     	ds	9
   603                           	global	?_ChangeLED
   604  00BF                     ?_ChangeLED:	; 0 bytes @ 0x1F
   605                           	global	ChangeLED@port2
   606  00BF                     ChangeLED@port2:	; 1 bytes @ 0x1F
   607  00BF                     	ds	1
   608                           	global	ChangeLED@outColor
   609  00C0                     ChangeLED@outColor:	; 2 bytes @ 0x20
   610  00C0                     	ds	2
   611                           	global	ChangeLED@inColor
   612  00C2                     ChangeLED@inColor:	; 2 bytes @ 0x22
   613  00C2                     	ds	2
   614                           	global	ChangeLED@outColor2
   615  00C4                     ChangeLED@outColor2:	; 2 bytes @ 0x24
   616  00C4                     	ds	2
   617                           	global	ChangeLED@inColor2
   618  00C6                     ChangeLED@inColor2:	; 2 bytes @ 0x26
   619  00C6                     	ds	2
   620                           	global	ChangeLED@outColor3
   621  00C8                     ChangeLED@outColor3:	; 2 bytes @ 0x28
   622  00C8                     	ds	2
   623                           	global	ChangeLED@inColor3
   624  00CA                     ChangeLED@inColor3:	; 2 bytes @ 0x2A
   625  00CA                     	ds	2
   626                           	global	ChangeLED@loopLimit
   627  00CC                     ChangeLED@loopLimit:	; 2 bytes @ 0x2C
   628  00CC                     	ds	2
   629                           	global	??_ChangeLED
   630  00CE                     ??_ChangeLED:	; 0 bytes @ 0x2E
   631  00CE                     	ds	4
   632                           	global	ChangeLED@j
   633  00D2                     ChangeLED@j:	; 2 bytes @ 0x32
   634  00D2                     	ds	2
   635                           	global	ChangeLED@i
   636  00D4                     ChangeLED@i:	; 2 bytes @ 0x34
   637  00D4                     	ds	2
   638                           	global	ChangeLED@i_424
   639  00D6                     ChangeLED@i_424:	; 2 bytes @ 0x36
   640  00D6                     	ds	2
   641                           	global	ChangeLED@port
   642  00D8                     ChangeLED@port:	; 1 bytes @ 0x38
   643  00D8                     	ds	1
   644                           	global	ChangeLED@k
   645  00D9                     ChangeLED@k:	; 2 bytes @ 0x39
   646  00D9                     	ds	2
   647                           	global	??_Mode1
   648  00DB                     ??_Mode1:	; 0 bytes @ 0x3B
   649                           	global	?_Mode3
   650  00DB                     ?_Mode3:	; 0 bytes @ 0x3B
   651                           	global	??_Mode5
   652  00DB                     ??_Mode5:	; 0 bytes @ 0x3B
   653                           	global	??_Mode6
   654  00DB                     ??_Mode6:	; 0 bytes @ 0x3B
   655                           	global	Mode3@string1
   656  00DB                     Mode3@string1:	; 2 bytes @ 0x3B
   657  00DB                     	ds	2
   658                           	global	Mode3@string3
   659  00DD                     Mode3@string3:	; 2 bytes @ 0x3D
   660  00DD                     	ds	2
   661                           	global	??_Mode3
   662  00DF                     ??_Mode3:	; 0 bytes @ 0x3F
   663  00DF                     	ds	1
   664                           	global	Mode3@string2
   665  00E0                     Mode3@string2:	; 2 bytes @ 0x40
   666  00E0                     	ds	2
   667                           	global	Mode1@i
   668  00E2                     Mode1@i:	; 2 bytes @ 0x42
   669                           	global	Mode3@newstring1
   670  00E2                     Mode3@newstring1:	; 2 bytes @ 0x42
   671  00E2                     	ds	2
   672                           	global	Mode1@j
   673  00E4                     Mode1@j:	; 2 bytes @ 0x44
   674                           	global	Mode3@newstring3
   675  00E4                     Mode3@newstring3:	; 2 bytes @ 0x44
   676  00E4                     	ds	2
   677                           	global	??_main
   678  00E6                     ??_main:	; 0 bytes @ 0x46
   679  00E6                     	ds	1
   680                           	global	main@string1
   681  00E7                     main@string1:	; 2 bytes @ 0x47
   682  00E7                     	ds	2
   683                           	global	main@string3
   684  00E9                     main@string3:	; 2 bytes @ 0x49
   685  00E9                     	ds	2
   686                           psect	cstackCOMMON,class=COMMON,space=1
   687                           global __pcstackCOMMON
   688  0070                     __pcstackCOMMON:
   689                           	global	?_Mode1
   690  0070                     ?_Mode1:	; 0 bytes @ 0x0
   691                           	global	?_Mode2
   692  0070                     ?_Mode2:	; 0 bytes @ 0x0
   693                           	global	?_Mode4
   694  0070                     ?_Mode4:	; 0 bytes @ 0x0
   695                           	global	?_Mode5
   696  0070                     ?_Mode5:	; 0 bytes @ 0x0
   697                           	global	?_Mode6
   698  0070                     ?_Mode6:	; 0 bytes @ 0x0
   699                           	global	?_ISR
   700  0070                     ?_ISR:	; 0 bytes @ 0x0
   701                           	global	?i1_Mode1
   702  0070                     ?i1_Mode1:	; 0 bytes @ 0x0
   703                           	global	?i1_Mode2
   704  0070                     ?i1_Mode2:	; 0 bytes @ 0x0
   705                           	global	??i1_Mode2
   706  0070                     ??i1_Mode2:	; 0 bytes @ 0x0
   707                           	global	?i1_Mode4
   708  0070                     ?i1_Mode4:	; 0 bytes @ 0x0
   709                           	global	??i1_Mode4
   710  0070                     ??i1_Mode4:	; 0 bytes @ 0x0
   711                           	global	?i1_Mode5
   712  0070                     ?i1_Mode5:	; 0 bytes @ 0x0
   713                           	global	?i1_Mode6
   714  0070                     ?i1_Mode6:	; 0 bytes @ 0x0
   715                           	global	??i1_init
   716  0070                     ??i1_init:	; 0 bytes @ 0x0
   717                           	global	?i1_srand
   718  0070                     ?i1_srand:	; 0 bytes @ 0x0
   719                           	global	?_main
   720  0070                     ?_main:	; 2 bytes @ 0x0
   721                           	global	?_init
   722  0070                     ?_init:	; 2 bytes @ 0x0
   723                           	global	?i1_init
   724  0070                     ?i1_init:	; 2 bytes @ 0x0
   725                           	global	?i1_main
   726  0070                     ?i1_main:	; 2 bytes @ 0x0
   727                           	global	?i1___lmul
   728  0070                     ?i1___lmul:	; 4 bytes @ 0x0
   729                           	global	i1srand@x
   730  0070                     i1srand@x:	; 2 bytes @ 0x0
   731                           	global	i1___lmul@multiplier
   732  0070                     i1___lmul@multiplier:	; 4 bytes @ 0x0
   733  0070                     	ds	2
   734                           	global	??i1_srand
   735  0072                     ??i1_srand:	; 0 bytes @ 0x2
   736  0072                     	ds	2
   737                           	global	i1___lmul@multiplicand
   738  0074                     i1___lmul@multiplicand:	; 4 bytes @ 0x4
   739  0074                     	ds	4
   740                           	global	??i1___lmul
   741  0078                     ??i1___lmul:	; 0 bytes @ 0x8
   742  0078                     	ds	1
   743                           	global	i1___lmul@product
   744  0079                     i1___lmul@product:	; 4 bytes @ 0x9
   745  0079                     	ds	4
   746                           	global	??i1___awmod
   747  007D                     ??i1___awmod:	; 0 bytes @ 0xD
   748  007D                     	ds	1
   749                           psect	cstackBANK0,class=BANK0,space=1
   750                           global __pcstackBANK0
   751  0020                     __pcstackBANK0:
   752                           	global	?i1___awmod
   753  0020                     ?i1___awmod:	; 2 bytes @ 0x0
   754                           	global	i1___awmod@divisor
   755  0020                     i1___awmod@divisor:	; 2 bytes @ 0x0
   756  0020                     	ds	2
   757                           	global	i1___awmod@dividend
   758  0022                     i1___awmod@dividend:	; 2 bytes @ 0x2
   759  0022                     	ds	2
   760                           	global	i1___awmod@counter
   761  0024                     i1___awmod@counter:	; 1 bytes @ 0x4
   762  0024                     	ds	1
   763                           	global	i1___awmod@sign
   764  0025                     i1___awmod@sign:	; 1 bytes @ 0x5
   765  0025                     	ds	1
   766                           	global	?i1_rand
   767  0026                     ?i1_rand:	; 2 bytes @ 0x6
   768  0026                     	ds	2
   769                           	global	??i1_rand
   770  0028                     ??i1_rand:	; 0 bytes @ 0x8
   771  0028                     	ds	9
   772                           	global	?i1_ChangeLED
   773  0031                     ?i1_ChangeLED:	; 0 bytes @ 0x11
   774                           	global	i1ChangeLED@port2
   775  0031                     i1ChangeLED@port2:	; 1 bytes @ 0x11
   776  0031                     	ds	1
   777                           	global	i1ChangeLED@outColor
   778  0032                     i1ChangeLED@outColor:	; 2 bytes @ 0x12
   779  0032                     	ds	2
   780                           	global	i1ChangeLED@inColor
   781  0034                     i1ChangeLED@inColor:	; 2 bytes @ 0x14
   782  0034                     	ds	2
   783                           	global	i1ChangeLED@outColor2
   784  0036                     i1ChangeLED@outColor2:	; 2 bytes @ 0x16
   785  0036                     	ds	2
   786                           	global	i1ChangeLED@inColor2
   787  0038                     i1ChangeLED@inColor2:	; 2 bytes @ 0x18
   788  0038                     	ds	2
   789                           	global	i1ChangeLED@outColor3
   790  003A                     i1ChangeLED@outColor3:	; 2 bytes @ 0x1A
   791  003A                     	ds	2
   792                           	global	i1ChangeLED@inColor3
   793  003C                     i1ChangeLED@inColor3:	; 2 bytes @ 0x1C
   794  003C                     	ds	2
   795                           	global	i1ChangeLED@loopLimit
   796  003E                     i1ChangeLED@loopLimit:	; 2 bytes @ 0x1E
   797  003E                     	ds	2
   798                           	global	??i1_ChangeLED
   799  0040                     ??i1_ChangeLED:	; 0 bytes @ 0x20
   800  0040                     	ds	4
   801                           	global	i1ChangeLED@j
   802  0044                     i1ChangeLED@j:	; 2 bytes @ 0x24
   803  0044                     	ds	2
   804                           	global	i1ChangeLED@i
   805  0046                     i1ChangeLED@i:	; 2 bytes @ 0x26
   806  0046                     	ds	2
   807                           	global	i1ChangeLED@i_424
   808  0048                     i1ChangeLED@i_424:	; 2 bytes @ 0x28
   809  0048                     	ds	2
   810                           	global	i1ChangeLED@port
   811  004A                     i1ChangeLED@port:	; 1 bytes @ 0x2A
   812  004A                     	ds	1
   813                           	global	i1ChangeLED@k
   814  004B                     i1ChangeLED@k:	; 2 bytes @ 0x2B
   815  004B                     	ds	2
   816                           	global	??i1_Mode1
   817  004D                     ??i1_Mode1:	; 0 bytes @ 0x2D
   818                           	global	?i1_Mode3
   819  004D                     ?i1_Mode3:	; 0 bytes @ 0x2D
   820                           	global	??i1_Mode5
   821  004D                     ??i1_Mode5:	; 0 bytes @ 0x2D
   822                           	global	??i1_Mode6
   823  004D                     ??i1_Mode6:	; 0 bytes @ 0x2D
   824                           	global	i1Mode3@string1
   825  004D                     i1Mode3@string1:	; 2 bytes @ 0x2D
   826  004D                     	ds	2
   827                           	global	i1Mode3@string3
   828  004F                     i1Mode3@string3:	; 2 bytes @ 0x2F
   829  004F                     	ds	2
   830                           	global	??i1_Mode3
   831  0051                     ??i1_Mode3:	; 0 bytes @ 0x31
   832  0051                     	ds	1
   833                           	global	i1Mode3@string2
   834  0052                     i1Mode3@string2:	; 2 bytes @ 0x32
   835  0052                     	ds	2
   836                           	global	i1Mode1@i
   837  0054                     i1Mode1@i:	; 2 bytes @ 0x34
   838                           	global	i1Mode3@newstring1
   839  0054                     i1Mode3@newstring1:	; 2 bytes @ 0x34
   840  0054                     	ds	2
   841                           	global	i1Mode1@j
   842  0056                     i1Mode1@j:	; 2 bytes @ 0x36
   843                           	global	i1Mode3@newstring3
   844  0056                     i1Mode3@newstring3:	; 2 bytes @ 0x36
   845  0056                     	ds	2
   846                           	global	??i1_main
   847  0058                     ??i1_main:	; 0 bytes @ 0x38
   848  0058                     	ds	1
   849                           	global	i1main@string1
   850  0059                     i1main@string1:	; 2 bytes @ 0x39
   851  0059                     	ds	2
   852                           	global	i1main@string3
   853  005B                     i1main@string3:	; 2 bytes @ 0x3B
   854  005B                     	ds	2
   855                           	global	??_ISR
   856  005D                     ??_ISR:	; 0 bytes @ 0x3D
   857  005D                     	ds	6
   858 ;;Data sizes: Strings 0, constant 132, data 0, bss 7, persistent 0 stack 0
   859 ;;Auto spaces:   Size  Autos    Used
   860 ;; COMMON          14     14      14
   861 ;; BANK0           80     67      69
   862 ;; BANK1           80     75      80
   863 ;; BANK2           80      0       0
   864                           
   865 ;;
   866 ;; Pointer list with targets:
   867                           
   868 ;; ?i1_rand	int  size(1) Largest target is 0
   869 ;;
   870 ;; ?i1___lmul	unsigned long  size(1) Largest target is 0
   871 ;;
   872 ;; ?i1___awmod	int  size(1) Largest target is 0
   873 ;;
   874 ;; i1ChangeLED@port2	PTR volatile unsigned char  size(1) Largest target is 1
   875 ;;		 -> PORTB(BITSFR0[1]), 
   876 ;;
   877 ;; i1ChangeLED@port	PTR volatile unsigned char  size(1) Largest target is 1
   878 ;;		 -> PORTC(BITSFR0[1]), 
   879 ;;
   880 ;; ?_rand	int  size(1) Largest target is 0
   881 ;;
   882 ;; ?___lmul	unsigned long  size(1) Largest target is 0
   883 ;;
   884 ;; ?___awmod	int  size(1) Largest target is 0
   885 ;;
   886 ;; ChangeLED@port2	PTR volatile unsigned char  size(1) Largest target is 1
   887 ;;		 -> PORTB(BITSFR0[1]), 
   888 ;;
   889 ;; ChangeLED@port	PTR volatile unsigned char  size(1) Largest target is 1
   890 ;;		 -> PORTC(BITSFR0[1]), 
   891 ;;
   892                           
   893                           
   894 ;;
   895 ;; Critical Paths under _main in COMMON
   896 ;;
   897 ;;   None.
   898 ;;
   899 ;; Critical Paths under _ISR in COMMON
   900 ;;
   901 ;;   i1_main->i1___awmod
   902 ;;   i1_Mode6->i1___awmod
   903 ;;   i1_Mode5->i1___awmod
   904 ;;   i1_Mode3->i1___awmod
   905 ;;   i1_rand->i1___awmod
   906 ;;   i1_ChangeLED->i1___awmod
   907 ;;   i1___awmod->i1___lmul
   908 ;;
   909 ;; Critical Paths under _main in BANK0
   910 ;;
   911 ;;   None.
   912 ;;
   913 ;; Critical Paths under _ISR in BANK0
   914 ;;
   915 ;;   _ISR->i1_main
   916 ;;   i1_main->i1_Mode1
   917 ;;   i1_main->i1_Mode3
   918 ;;   i1_Mode6->i1_ChangeLED
   919 ;;   i1_Mode5->i1_ChangeLED
   920 ;;   i1_Mode3->i1_ChangeLED
   921 ;;   i1_Mode1->i1_ChangeLED
   922 ;;   i1_rand->i1___awmod
   923 ;;   i1_ChangeLED->i1_rand
   924 ;;
   925 ;; Critical Paths under _main in BANK1
   926 ;;
   927 ;;   _main->_Mode1
   928 ;;   _main->_Mode3
   929 ;;   _Mode6->_ChangeLED
   930 ;;   _Mode5->_ChangeLED
   931 ;;   _Mode3->_ChangeLED
   932 ;;   _Mode1->_ChangeLED
   933 ;;   _rand->___awmod
   934 ;;   _ChangeLED->_rand
   935 ;;   ___awmod->___lmul
   936 ;;
   937 ;; Critical Paths under _ISR in BANK1
   938 ;;
   939 ;;   None.
   940 ;;
   941 ;; Critical Paths under _main in BANK2
   942 ;;
   943 ;;   None.
   944 ;;
   945 ;; Critical Paths under _ISR in BANK2
   946 ;;
   947 ;;   None.
   948                           
   949 ;;
   950 ;;Main: autosize = 0, tempsize = 1, incstack = 0, save=0
   951 ;;
   952                           
   953 ;;
   954 ;;Call Graph Tables:
   955 ;;
   956 ;; ---------------------------------------------------------------------------------
   957 ;; (Depth) Function   	        Calls       Base Space   Used Autos Params    Refs
   958 ;; ---------------------------------------------------------------------------------
   959 ;; (0) _main                                                 5     5      0    4698
   960 ;;                                             70 BANK1      5     5      0
   961 ;;                               _init
   962 ;;                              _Mode1
   963 ;;                              _Mode2
   964 ;;                               _rand
   965 ;;                            ___awmod
   966 ;;                              _Mode3
   967 ;;                              _Mode4
   968 ;;                              _Mode5
   969 ;;                              _Mode6
   970 ;; ---------------------------------------------------------------------------------
   971 ;; (1) _Mode6                                                1     1      0     814
   972 ;;                                             59 BANK1      1     1      0
   973 ;;                               _rand
   974 ;;                            ___awmod
   975 ;;                          _ChangeLED
   976 ;; ---------------------------------------------------------------------------------
   977 ;; (1) _Mode5                                                7     7      0     814
   978 ;;                                             59 BANK1      7     7      0
   979 ;;                               _rand
   980 ;;                            ___awmod
   981 ;;                          _ChangeLED
   982 ;; ---------------------------------------------------------------------------------
   983 ;; (1) _Mode3                                               11     7      4    1986
   984 ;;                                             59 BANK1     11     7      4
   985 ;;                               _rand
   986 ;;                            ___awmod
   987 ;;                          _ChangeLED
   988 ;;                              _Mode3
   989 ;; ---------------------------------------------------------------------------------
   990 ;; (1) _Mode1                                               11    11      0     628
   991 ;;                                             59 BANK1     11    11      0
   992 ;;                          _ChangeLED
   993 ;; ---------------------------------------------------------------------------------
   994 ;; (1) _Mode4                                                3     3      0       0
   995 ;;                                              0 BANK1      3     3      0
   996 ;; ---------------------------------------------------------------------------------
   997 ;; (2) _rand                                                11     9      2     114
   998 ;;                                             20 BANK1     11     9      2
   999 ;;                              _srand
  1000 ;;                             ___lmul
  1001 ;;                            ___awmod (ARG)
  1002 ;; ---------------------------------------------------------------------------------
  1003 ;; (2) _ChangeLED                                           28    13     15     404
  1004 ;;                                             31 BANK1     28    13     15
  1005 ;;                            ___awmod (ARG)
  1006 ;;                               _rand (ARG)
  1007 ;; ---------------------------------------------------------------------------------
  1008 ;; (2) ___awmod                                              7     3      4     296
  1009 ;;                                             13 BANK1      7     3      4
  1010 ;;                              _srand (ARG)
  1011 ;;                             ___lmul (ARG)
  1012 ;; ---------------------------------------------------------------------------------
  1013 ;; (3) ___lmul                                              13     5      8      92
  1014 ;;                                              0 BANK1     13     5      8
  1015 ;; ---------------------------------------------------------------------------------
  1016 ;; (3) _srand                                                2     0      2      22
  1017 ;;                                              0 BANK1      2     0      2
  1018 ;; ---------------------------------------------------------------------------------
  1019 ;; (1) _init                                                 0     0      0       0
  1020 ;; ---------------------------------------------------------------------------------
  1021 ;; (1) _Mode2                                                3     3      0       0
  1022 ;;                                              0 BANK1      3     3      0
  1023 ;; ---------------------------------------------------------------------------------
  1024 ;; Estimated maximum stack depth 3
  1025 ;; ---------------------------------------------------------------------------------
  1026 ;; (Depth) Function   	        Calls       Base Space   Used Autos Params    Refs
  1027 ;; ---------------------------------------------------------------------------------
  1028 ;; (4) _ISR                                                  6     6      0   15428
  1029 ;;                                             61 BANK0      6     6      0
  1030 ;;                             i1_main
  1031 ;; ---------------------------------------------------------------------------------
  1032 ;; (5) i1_main                                               5     5      0   15428
  1033 ;;                                             56 BANK0      5     5      0
  1034 ;;                             i1_init
  1035 ;;                            i1_Mode1
  1036 ;;                            i1_Mode2
  1037 ;;                             i1_rand
  1038 ;;                          i1___awmod
  1039 ;;                            i1_Mode3
  1040 ;;                            i1_Mode4
  1041 ;;                            i1_Mode5
  1042 ;;                            i1_Mode6
  1043 ;; ---------------------------------------------------------------------------------
  1044 ;; (6) i1_Mode6                                              1     1      0    2672
  1045 ;;                                             45 BANK0      1     1      0
  1046 ;;                             i1_rand
  1047 ;;                          i1___awmod
  1048 ;;                        i1_ChangeLED
  1049 ;; ---------------------------------------------------------------------------------
  1050 ;; (6) i1_Mode5                                              7     7      0    2672
  1051 ;;                                             45 BANK0      7     7      0
  1052 ;;                             i1_rand
  1053 ;;                          i1___awmod
  1054 ;;                        i1_ChangeLED
  1055 ;; ---------------------------------------------------------------------------------
  1056 ;; (6) i1_Mode3                                             11     7      4    6524
  1057 ;;                                             45 BANK0     11     7      4
  1058 ;;                             i1_rand
  1059 ;;                          i1___awmod
  1060 ;;                        i1_ChangeLED
  1061 ;;                            i1_Mode3
  1062 ;; ---------------------------------------------------------------------------------
  1063 ;; (6) i1_Mode1                                             11    11      0    2068
  1064 ;;                                             45 BANK0     11    11      0
  1065 ;;                        i1_ChangeLED
  1066 ;; ---------------------------------------------------------------------------------
  1067 ;; (7) i1_rand                                              11     9      2     373
  1068 ;;                                              6 BANK0     11     9      2
  1069 ;;                            i1_srand
  1070 ;;                           i1___lmul
  1071 ;;                          i1___awmod (ARG)
  1072 ;; ---------------------------------------------------------------------------------
  1073 ;; (7) i1_Mode4                                              3     3      0       0
  1074 ;;                                              0 COMMON     3     3      0
  1075 ;; ---------------------------------------------------------------------------------
  1076 ;; (8) i1_ChangeLED                                         28    13     15    1330
  1077 ;;                                             17 BANK0     28    13     15
  1078 ;;                          i1___awmod (ARG)
  1079 ;;                             i1_rand (ARG)
  1080 ;; ---------------------------------------------------------------------------------
  1081 ;; (7) i1___awmod                                            7     3      4     969
  1082 ;;                                             13 COMMON     1     1      0
  1083 ;;                                              0 BANK0      6     2      4
  1084 ;;                            i1_srand (ARG)
  1085 ;;                           i1___lmul (ARG)
  1086 ;; ---------------------------------------------------------------------------------
  1087 ;; (8) i1___lmul                                            13     5      8     300
  1088 ;;                                              0 COMMON    13     5      8
  1089 ;; ---------------------------------------------------------------------------------
  1090 ;; (8) i1_srand                                              2     0      2      73
  1091 ;;                                              0 COMMON     2     0      2
  1092 ;; ---------------------------------------------------------------------------------
  1093 ;; (6) i1_init                                               0     0      0       0
  1094 ;; ---------------------------------------------------------------------------------
  1095 ;; (7) i1_Mode2                                              3     3      0       0
  1096 ;;                                              0 COMMON     3     3      0
  1097 ;; ---------------------------------------------------------------------------------
  1098 ;; Estimated maximum stack depth 8
  1099 ;; ---------------------------------------------------------------------------------
  1100                           
  1101 ;; Call Graph Graphs:
  1102                           
  1103 ;; _main (ROOT)
  1104 ;;   _init
  1105 ;;   _Mode1
  1106 ;;     _ChangeLED
  1107 ;;       ___awmod (ARG)
  1108 ;;         _srand (ARG)
  1109 ;;         ___lmul (ARG)
  1110 ;;       _rand (ARG)
  1111 ;;         _srand
  1112 ;;         ___lmul
  1113 ;;         ___awmod (ARG)
  1114 ;;           _srand (ARG)
  1115 ;;           ___lmul (ARG)
  1116 ;;   _Mode2
  1117 ;;   _rand
  1118 ;;     _srand
  1119 ;;     ___lmul
  1120 ;;     ___awmod (ARG)
  1121 ;;       _srand (ARG)
  1122 ;;       ___lmul (ARG)
  1123 ;;   ___awmod
  1124 ;;     _srand (ARG)
  1125 ;;     ___lmul (ARG)
  1126 ;;   _Mode3
  1127 ;;     _rand
  1128 ;;       _srand
  1129 ;;       ___lmul
  1130 ;;       ___awmod (ARG)
  1131 ;;         _srand (ARG)
  1132 ;;         ___lmul (ARG)
  1133 ;;     ___awmod
  1134 ;;       _srand (ARG)
  1135 ;;       ___lmul (ARG)
  1136 ;;     _ChangeLED
  1137 ;;       ___awmod (ARG)
  1138 ;;         _srand (ARG)
  1139 ;;         ___lmul (ARG)
  1140 ;;       _rand (ARG)
  1141 ;;         _srand
  1142 ;;         ___lmul
  1143 ;;         ___awmod (ARG)
  1144 ;;           _srand (ARG)
  1145 ;;           ___lmul (ARG)
  1146 ;;   _Mode4
  1147 ;;   _Mode5
  1148 ;;     _rand
  1149 ;;       _srand
  1150 ;;       ___lmul
  1151 ;;       ___awmod (ARG)
  1152 ;;         _srand (ARG)
  1153 ;;         ___lmul (ARG)
  1154 ;;     ___awmod
  1155 ;;       _srand (ARG)
  1156 ;;       ___lmul (ARG)
  1157 ;;     _ChangeLED
  1158 ;;       ___awmod (ARG)
  1159 ;;         _srand (ARG)
  1160 ;;         ___lmul (ARG)
  1161 ;;       _rand (ARG)
  1162 ;;         _srand
  1163 ;;         ___lmul
  1164 ;;         ___awmod (ARG)
  1165 ;;           _srand (ARG)
  1166 ;;           ___lmul (ARG)
  1167 ;;   _Mode6
  1168 ;;     _rand
  1169 ;;       _srand
  1170 ;;       ___lmul
  1171 ;;       ___awmod (ARG)
  1172 ;;         _srand (ARG)
  1173 ;;         ___lmul (ARG)
  1174 ;;     ___awmod
  1175 ;;       _srand (ARG)
  1176 ;;       ___lmul (ARG)
  1177 ;;     _ChangeLED
  1178 ;;       ___awmod (ARG)
  1179 ;;         _srand (ARG)
  1180 ;;         ___lmul (ARG)
  1181 ;;       _rand (ARG)
  1182 ;;         _srand
  1183 ;;         ___lmul
  1184 ;;         ___awmod (ARG)
  1185 ;;           _srand (ARG)
  1186 ;;           ___lmul (ARG)
  1187 ;;
  1188 ;; _ISR (ROOT)
  1189 ;;   i1_main
  1190 ;;     i1_init
  1191 ;;     i1_Mode1
  1192 ;;       i1_ChangeLED
  1193 ;;         i1___awmod (ARG)
  1194 ;;           i1_srand (ARG)
  1195 ;;           i1___lmul (ARG)
  1196 ;;         i1_rand (ARG)
  1197 ;;           i1_srand
  1198 ;;           i1___lmul
  1199 ;;           i1___awmod (ARG)
  1200 ;;             i1_srand (ARG)
  1201 ;;             i1___lmul (ARG)
  1202 ;;     i1_Mode2
  1203 ;;     i1_rand
  1204 ;;       i1_srand
  1205 ;;       i1___lmul
  1206 ;;       i1___awmod (ARG)
  1207 ;;         i1_srand (ARG)
  1208 ;;         i1___lmul (ARG)
  1209 ;;     i1___awmod
  1210 ;;       i1_srand (ARG)
  1211 ;;       i1___lmul (ARG)
  1212 ;;     i1_Mode3
  1213 ;;       i1_rand
  1214 ;;         i1_srand
  1215 ;;         i1___lmul
  1216 ;;         i1___awmod (ARG)
  1217 ;;           i1_srand (ARG)
  1218 ;;           i1___lmul (ARG)
  1219 ;;       i1___awmod
  1220 ;;         i1_srand (ARG)
  1221 ;;         i1___lmul (ARG)
  1222 ;;       i1_ChangeLED
  1223 ;;         i1___awmod (ARG)
  1224 ;;           i1_srand (ARG)
  1225 ;;           i1___lmul (ARG)
  1226 ;;         i1_rand (ARG)
  1227 ;;           i1_srand
  1228 ;;           i1___lmul
  1229 ;;           i1___awmod (ARG)
  1230 ;;             i1_srand (ARG)
  1231 ;;             i1___lmul (ARG)
  1232 ;;     i1_Mode4
  1233 ;;     i1_Mode5
  1234 ;;       i1_rand
  1235 ;;         i1_srand
  1236 ;;         i1___lmul
  1237 ;;         i1___awmod (ARG)
  1238 ;;           i1_srand (ARG)
  1239 ;;           i1___lmul (ARG)
  1240 ;;       i1___awmod
  1241 ;;         i1_srand (ARG)
  1242 ;;         i1___lmul (ARG)
  1243 ;;       i1_ChangeLED
  1244 ;;         i1___awmod (ARG)
  1245 ;;           i1_srand (ARG)
  1246 ;;           i1___lmul (ARG)
  1247 ;;         i1_rand (ARG)
  1248 ;;           i1_srand
  1249 ;;           i1___lmul
  1250 ;;           i1___awmod (ARG)
  1251 ;;             i1_srand (ARG)
  1252 ;;             i1___lmul (ARG)
  1253 ;;     i1_Mode6
  1254 ;;       i1_rand
  1255 ;;         i1_srand
  1256 ;;         i1___lmul
  1257 ;;         i1___awmod (ARG)
  1258 ;;           i1_srand (ARG)
  1259 ;;           i1___lmul (ARG)
  1260 ;;       i1___awmod
  1261 ;;         i1_srand (ARG)
  1262 ;;         i1___lmul (ARG)
  1263 ;;       i1_ChangeLED
  1264 ;;         i1___awmod (ARG)
  1265 ;;           i1_srand (ARG)
  1266 ;;           i1___lmul (ARG)
  1267 ;;         i1_rand (ARG)
  1268 ;;           i1_srand
  1269 ;;           i1___lmul
  1270 ;;           i1___awmod (ARG)
  1271 ;;             i1_srand (ARG)
  1272 ;;             i1___lmul (ARG)
  1273 ;;
  1274                           
  1275 ;; Address spaces:
  1276                           
  1277 ;;Name               Size   Autos  Total    Cost      Usage
  1278 ;;BITCOMMON            E      0       0       0        0.0%
  1279 ;;EEDATA             100      0       0       0        0.0%
  1280 ;;NULL                 0      0       0       0        0.0%
  1281 ;;CODE                 0      0       0       0        0.0%
  1282 ;;COMMON               E      E       E       1      100.0%
  1283 ;;BITSFR0              0      0       0       1        0.0%
  1284 ;;SFR0                 0      0       0       1        0.0%
  1285 ;;BITSFR1              0      0       0       2        0.0%
  1286 ;;SFR1                 0      0       0       2        0.0%
  1287 ;;STACK                0      0      10       2        0.0%
  1288 ;;BANK0               50     43      45       3       86.3%
  1289 ;;BITBANK1            50      0       0       4        0.0%
  1290 ;;BITSFR3              0      0       0       4        0.0%
  1291 ;;SFR3                 0      0       0       4        0.0%
  1292 ;;BANK1               50     4B      50       5      100.0%
  1293 ;;BITSFR2              0      0       0       5        0.0%
  1294 ;;SFR2                 0      0       0       5        0.0%
  1295 ;;BITBANK2            50      0       0       6        0.0%
  1296 ;;BANK2               50      0       0       7        0.0%
  1297 ;;ABS                  0      0      A3       8        0.0%
  1298 ;;BITBANK0            50      0       0       9        0.0%
  1299 ;;DATA                 0      0      B3      10        0.0%
  1300                           
  1301                           	global	_main
  1302                           psect	maintext,global,class=CODE,delta=2
  1303                           global __pmaintext
  1304  0E85                     __pmaintext:
  1305                           
  1306 ;; *************** function _main *****************
  1307 ;; Defined at:
  1308 ;;		line 235 in file "main.c"
  1309 ;; Parameters:    Size  Location     Type
  1310 ;;		None
  1311 ;; Auto vars:     Size  Location     Type
  1312 ;;  string3         2   73[BANK1 ] int 
  1313 ;;  string1         2   71[BANK1 ] int 
  1314 ;; Return value:  Size  Location     Type
  1315 ;;                  2  764[COMMON] int 
  1316 ;; Registers used:
  1317 ;;		wreg, fsr0l, fsr0h, status,2, status,0, btemp+1, pclath, cstack
  1318 ;; Tracked objects:
  1319 ;;		On entry : 17F/0
  1320 ;;		On exit  : 0/0
  1321 ;;		Unchanged: 0/0
  1322 ;; Data sizes:     COMMON   BANK0   BANK1   BANK2
  1323 ;;      Params:         0       0       0       0
  1324 ;;      Locals:         0       0       4       0
  1325 ;;      Temps:          0       0       1       0
  1326 ;;      Totals:         0       0       5       0
  1327 ;;Total ram usage:        5 bytes
  1328 ;; Hardware stack levels required when called:    8
  1329 ;; This function calls:
  1330 ;;		_init
  1331 ;;		_Mode1
  1332 ;;		_Mode2
  1333 ;;		_rand
  1334 ;;		___awmod
  1335 ;;		_Mode3
  1336 ;;		_Mode4
  1337 ;;		_Mode5
  1338 ;;		_Mode6
  1339 ;; This function is called by:
  1340 ;;		Startup code after reset
  1341 ;; This function uses a non-reentrant model
  1342 ;;
  1343                           psect	maintext
  1344                           	file	"main.c"
  1345                           	line	235
  1346                           	global	__size_of_main
  1347  00BA                     	__size_of_main	equ	__end_of_main-_main
  1348                           	
  1349  0E85                     _main:	
  1350 ;; using string table level
  1351                           	opt	stack 1
  1352                           ; Regs used in _main: [wreg-fsr0h+status,2+status,0+btemp+1+pclath+cstack]
  1353                           	line	237
  1354                           	
  1355  0E85                     l4705:	
  1356                           ;main.c: 237: init();
  1357  0E85  158A  2225  158A   	fcall	_init
  1358  0E88  2E8E               	goto	l4709
  1359                           	line	240
  1360                           ;main.c: 240: while (1)
  1361                           	
  1362  0E89                     l814:	
  1363                           	line	242
  1364                           ;main.c: 241: {
  1365                           ;main.c: 242: while (i1==0)
  1366  0E89  2E8E               	goto	l4709
  1367                           	
  1368  0E8A                     l816:	
  1369                           	line	245
  1370                           	
  1371  0E8A                     l4707:	
  1372                           ;main.c: 243: {
  1373                           ;main.c: 245: Mode1();
  1374  0E8A  118A  2013  158A   	fcall	_Mode1
  1375  0E8D  2E8E               	goto	l4709
  1376                           	line	246
  1377                           	
  1378  0E8E                     l815:	
  1379                           	line	242
  1380                           	
  1381  0E8E                     l4709:	
  1382  0E8E  1283               	bcf	status, 5	;RP0=0, select bank0
  1383  0E8F  1303               	bcf	status, 6	;RP1=0, select bank0
  1384  0E90  0864               	movf	(_i1+1),w	;volatile
  1385  0E91  0463               	iorwf	(_i1),w	;volatile
  1386  0E92  1903               	skipnz
  1387  0E93  2E95               	goto	u3721
  1388  0E94  2E96               	goto	u3720
  1389  0E95                     u3721:
  1390  0E95  2E8A               	goto	l4707
  1391  0E96                     u3720:
  1392  0E96  2E9C               	goto	l4713
  1393                           	
  1394  0E97                     l817:	
  1395                           	line	247
  1396                           ;main.c: 246: }
  1397                           ;main.c: 247: while (i1>=1 && i1<=7)
  1398  0E97  2E9C               	goto	l4713
  1399                           	
  1400  0E98                     l819:	
  1401                           	line	250
  1402                           	
  1403  0E98                     l4711:	
  1404                           ;main.c: 248: {
  1405                           ;main.c: 250: Mode2();
  1406  0E98  158A  223B  158A   	fcall	_Mode2
  1407  0E9B  2E9C               	goto	l4713
  1408                           	line	251
  1409                           	
  1410  0E9C                     l818:	
  1411                           	line	247
  1412                           	
  1413  0E9C                     l4713:	
  1414  0E9C  1283               	bcf	status, 5	;RP0=0, select bank0
  1415  0E9D  1303               	bcf	status, 6	;RP1=0, select bank0
  1416  0E9E  0864               	movf	(_i1+1),w	;volatile
  1417  0E9F  0463               	iorwf	(_i1),w	;volatile
  1418  0EA0  1903               	skipnz
  1419  0EA1  2EA3               	goto	u3731
  1420  0EA2  2EA4               	goto	u3730
  1421  0EA3                     u3731:
  1422  0EA3  2F04               	goto	l4721
  1423  0EA4                     u3730:
  1424                           	
  1425  0EA4                     l4715:	
  1426  0EA4  3000               	movlw	high(08h)
  1427  0EA5  0264               	subwf	(_i1+1),w	;volatile
  1428  0EA6  3008               	movlw	low(08h)
  1429  0EA7  1903               	skipnz
  1430  0EA8  0263               	subwf	(_i1),w	;volatile
  1431  0EA9  1C03               	skipc
  1432  0EAA  2EAC               	goto	u3741
  1433  0EAB  2EAD               	goto	u3740
  1434  0EAC                     u3741:
  1435  0EAC  2E98               	goto	l4711
  1436  0EAD                     u3740:
  1437  0EAD  2F04               	goto	l4721
  1438                           	
  1439  0EAE                     l821:	
  1440  0EAE  2F04               	goto	l4721
  1441                           	
  1442  0EAF                     l822:	
  1443                           	line	252
  1444                           ;main.c: 251: }
  1445                           ;main.c: 252: while (i1==8)
  1446  0EAF  2F04               	goto	l4721
  1447                           	
  1448  0EB0                     l824:	
  1449                           	line	256
  1450                           	
  1451  0EB0                     l4717:	
  1452                           ;main.c: 253: {
  1453                           ;main.c: 256: int string1 = led0Colors[rand()%6];
  1454  0EB0  3006               	movlw	low(06h)
  1455  0EB1  1683               	bsf	status, 5	;RP0=1, select bank1
  1456  0EB2  1303               	bcf	status, 6	;RP1=0, select bank1
  1457  0EB3  00AD               	movwf	(?___awmod)^080h
  1458  0EB4  3000               	movlw	high(06h)
  1459  0EB5  00AE               	movwf	((?___awmod)^080h)+1
  1460  0EB6  158A  2346  158A   	fcall	_rand
  1461  0EB9  1683               	bsf	status, 5	;RP0=1, select bank1
  1462  0EBA  1303               	bcf	status, 6	;RP1=0, select bank1
  1463  0EBB  0835               	movf	(1+(?_rand))^080h,w
  1464  0EBC  01B0               	clrf	1+(?___awmod)^080h+02h
  1465  0EBD  07B0               	addwf	1+(?___awmod)^080h+02h
  1466  0EBE  0834               	movf	(0+(?_rand))^080h,w
  1467  0EBF  01AF               	clrf	0+(?___awmod)^080h+02h
  1468  0EC0  07AF               	addwf	0+(?___awmod)^080h+02h
  1469                           
  1470  0EC1  158A  2475  158A   	fcall	___awmod
  1471  0EC4  1683               	bsf	status, 5	;RP0=1, select bank1
  1472  0EC5  1303               	bcf	status, 6	;RP1=0, select bank1
  1473  0EC6  082D               	movf	(0+(?___awmod))^080h,w
  1474  0EC7  00E6               	movwf	(??_main+0)^080h+0
  1475  0EC8  0766               	addwf	(??_main+0)^080h+0,w
  1476  0EC9  3E2B               	addlw	low((_led0Colors-__stringbase))
  1477  0ECA  0084               	movwf	fsr0
  1478  0ECB  118A  274E  158A   	fcall	stringdir
  1479  0ECE  00E7               	movwf	(main@string1)^080h
  1480  0ECF  118A  274E  158A   	fcall	stringdir
  1481  0ED2  00E8               	movwf	(main@string1+1)^080h
  1482                           	line	257
  1483                           ;main.c: 257: int string3 = led2Colors[rand()%6];
  1484  0ED3  3006               	movlw	low(06h)
  1485  0ED4  00AD               	movwf	(?___awmod)^080h
  1486  0ED5  3000               	movlw	high(06h)
  1487  0ED6  00AE               	movwf	((?___awmod)^080h)+1
  1488  0ED7  158A  2346  158A   	fcall	_rand
  1489  0EDA  1683               	bsf	status, 5	;RP0=1, select bank1
  1490  0EDB  1303               	bcf	status, 6	;RP1=0, select bank1
  1491  0EDC  0835               	movf	(1+(?_rand))^080h,w
  1492  0EDD  01B0               	clrf	1+(?___awmod)^080h+02h
  1493  0EDE  07B0               	addwf	1+(?___awmod)^080h+02h
  1494  0EDF  0834               	movf	(0+(?_rand))^080h,w
  1495  0EE0  01AF               	clrf	0+(?___awmod)^080h+02h
  1496  0EE1  07AF               	addwf	0+(?___awmod)^080h+02h
  1497                           
  1498  0EE2  158A  2475  158A   	fcall	___awmod
  1499  0EE5  1683               	bsf	status, 5	;RP0=1, select bank1
  1500  0EE6  1303               	bcf	status, 6	;RP1=0, select bank1
  1501  0EE7  082D               	movf	(0+(?___awmod))^080h,w
  1502  0EE8  00E6               	movwf	(??_main+0)^080h+0
  1503  0EE9  0766               	addwf	(??_main+0)^080h+0,w
  1504  0EEA  3E4B               	addlw	low((_led2Colors-__stringbase))
  1505  0EEB  0084               	movwf	fsr0
  1506  0EEC  118A  274E  158A   	fcall	stringdir
  1507  0EEF  00E9               	movwf	(main@string3)^080h
  1508  0EF0  118A  274E  158A   	fcall	stringdir
  1509  0EF3  00EA               	movwf	(main@string3+1)^080h
  1510                           	line	260
  1511                           	
  1512  0EF4                     l4719:	
  1513                           ;main.c: 260: Mode3(string1, string3);
  1514  0EF4  0868               	movf	(main@string1+1)^080h,w
  1515  0EF5  01DC               	clrf	(?_Mode3+1)^080h
  1516  0EF6  07DC               	addwf	(?_Mode3+1)^080h
  1517  0EF7  0867               	movf	(main@string1)^080h,w
  1518  0EF8  01DB               	clrf	(?_Mode3)^080h
  1519  0EF9  07DB               	addwf	(?_Mode3)^080h
  1520                           
  1521  0EFA  086A               	movf	(main@string3+1)^080h,w
  1522  0EFB  01DE               	clrf	1+(?_Mode3)^080h+02h
  1523  0EFC  07DE               	addwf	1+(?_Mode3)^080h+02h
  1524  0EFD  0869               	movf	(main@string3)^080h,w
  1525  0EFE  01DD               	clrf	0+(?_Mode3)^080h+02h
  1526  0EFF  07DD               	addwf	0+(?_Mode3)^080h+02h
  1527                           
  1528  0F00  118A  2369  158A   	fcall	_Mode3
  1529  0F03  2F04               	goto	l4721
  1530                           	line	261
  1531                           	
  1532  0F04                     l823:	
  1533                           	line	252
  1534                           	
  1535  0F04                     l4721:	
  1536  0F04  3008               	movlw	08h
  1537  0F05  1283               	bcf	status, 5	;RP0=0, select bank0
  1538  0F06  1303               	bcf	status, 6	;RP1=0, select bank0
  1539  0F07  0663               	xorwf	(_i1),w	;volatile
  1540  0F08  0464               	iorwf	(_i1+1),w	;volatile
  1541  0F09  1903               	skipnz
  1542  0F0A  2F0C               	goto	u3751
  1543  0F0B  2F0D               	goto	u3750
  1544  0F0C                     u3751:
  1545  0F0C  2EB0               	goto	l4717
  1546  0F0D                     u3750:
  1547  0F0D  2F13               	goto	l4725
  1548                           	
  1549  0F0E                     l825:	
  1550                           	line	262
  1551                           ;main.c: 261: }
  1552                           ;main.c: 262: while (i1==9)
  1553  0F0E  2F13               	goto	l4725
  1554                           	
  1555  0F0F                     l827:	
  1556                           	line	265
  1557                           	
  1558  0F0F                     l4723:	
  1559                           ;main.c: 263: {
  1560                           ;main.c: 265: Mode4();
  1561  0F0F  158A  24DD  158A   	fcall	_Mode4
  1562  0F12  2F13               	goto	l4725
  1563                           	line	266
  1564                           	
  1565  0F13                     l826:	
  1566                           	line	262
  1567                           	
  1568  0F13                     l4725:	
  1569  0F13  3009               	movlw	09h
  1570  0F14  1283               	bcf	status, 5	;RP0=0, select bank0
  1571  0F15  1303               	bcf	status, 6	;RP1=0, select bank0
  1572  0F16  0663               	xorwf	(_i1),w	;volatile
  1573  0F17  0464               	iorwf	(_i1+1),w	;volatile
  1574  0F18  1903               	skipnz
  1575  0F19  2F1B               	goto	u3761
  1576  0F1A  2F1C               	goto	u3760
  1577  0F1B                     u3761:
  1578  0F1B  2F0F               	goto	l4723
  1579  0F1C                     u3760:
  1580  0F1C  2F22               	goto	l4729
  1581                           	
  1582  0F1D                     l828:	
  1583                           	line	267
  1584                           ;main.c: 266: }
  1585                           ;main.c: 267: while (i1==10)
  1586  0F1D  2F22               	goto	l4729
  1587                           	
  1588  0F1E                     l830:	
  1589                           	line	270
  1590                           	
  1591  0F1E                     l4727:	
  1592                           ;main.c: 268: {
  1593                           ;main.c: 270: Mode5();
  1594  0F1E  118A  20EB  158A   	fcall	_Mode5
  1595  0F21  2F22               	goto	l4729
  1596                           	line	271
  1597                           	
  1598  0F22                     l829:	
  1599                           	line	267
  1600                           	
  1601  0F22                     l4729:	
  1602  0F22  300A               	movlw	0Ah
  1603  0F23  1283               	bcf	status, 5	;RP0=0, select bank0
  1604  0F24  1303               	bcf	status, 6	;RP1=0, select bank0
  1605  0F25  0663               	xorwf	(_i1),w	;volatile
  1606  0F26  0464               	iorwf	(_i1+1),w	;volatile
  1607  0F27  1903               	skipnz
  1608  0F28  2F2A               	goto	u3771
  1609  0F29  2F2B               	goto	u3770
  1610  0F2A                     u3771:
  1611  0F2A  2F1E               	goto	l4727
  1612  0F2B                     u3770:
  1613  0F2B  2F31               	goto	l4733
  1614                           	
  1615  0F2C                     l831:	
  1616                           	line	272
  1617                           ;main.c: 271: }
  1618                           ;main.c: 272: while (i1==11)
  1619  0F2C  2F31               	goto	l4733
  1620                           	
  1621  0F2D                     l833:	
  1622                           	line	275
  1623                           	
  1624  0F2D                     l4731:	
  1625                           ;main.c: 273: {
  1626                           ;main.c: 275: Mode6();
  1627  0F2D  118A  268D  158A   	fcall	_Mode6
  1628  0F30  2F31               	goto	l4733
  1629                           	line	276
  1630                           	
  1631  0F31                     l832:	
  1632                           	line	272
  1633                           	
  1634  0F31                     l4733:	
  1635  0F31  300B               	movlw	0Bh
  1636  0F32  1283               	bcf	status, 5	;RP0=0, select bank0
  1637  0F33  1303               	bcf	status, 6	;RP1=0, select bank0
  1638  0F34  0663               	xorwf	(_i1),w	;volatile
  1639  0F35  0464               	iorwf	(_i1+1),w	;volatile
  1640  0F36  1903               	skipnz
  1641  0F37  2F39               	goto	u3781
  1642  0F38  2F3A               	goto	u3780
  1643  0F39                     u3781:
  1644  0F39  2F2D               	goto	l4731
  1645  0F3A                     u3780:
  1646  0F3A  2E8E               	goto	l4709
  1647                           	
  1648  0F3B                     l834:	
  1649  0F3B  2E8E               	goto	l4709
  1650                           	line	277
  1651                           	
  1652  0F3C                     l835:	
  1653                           	line	240
  1654  0F3C  2E8E               	goto	l4709
  1655                           	
  1656  0F3D                     l836:	
  1657                           	line	278
  1658                           	
  1659  0F3D                     l837:	
  1660                           	global	start
  1661  0F3D  118A  2811         	ljmp	start
  1662                           	opt stack 0
  1663                           GLOBAL	__end_of_main
  1664  0F3F                     	__end_of_main:
  1665 ;; =============== function _main ends ============
  1666                           
  1667                           	signat	_main,90
  1668                           	global	_Mode6
  1669                           psect	text655,local,class=CODE,delta=2
  1670                           global __ptext655
  1671  068D                     __ptext655:
  1672                           
  1673 ;; *************** function _Mode6 *****************
  1674 ;; Defined at:
  1675 ;;		line 183 in file "main.c"
  1676 ;; Parameters:    Size  Location     Type
  1677 ;;		None
  1678 ;; Auto vars:     Size  Location     Type
  1679 ;;		None
  1680 ;; Return value:  Size  Location     Type
  1681 ;;		None               void
  1682 ;; Registers used:
  1683 ;;		wreg, fsr0l, fsr0h, status,2, status,0, btemp+1, pclath, cstack
  1684 ;; Tracked objects:
  1685 ;;		On entry : 0/0
  1686 ;;		On exit  : 0/0
  1687 ;;		Unchanged: 0/0
  1688 ;; Data sizes:     COMMON   BANK0   BANK1   BANK2
  1689 ;;      Params:         0       0       0       0
  1690 ;;      Locals:         0       0       0       0
  1691 ;;      Temps:          0       0       1       0
  1692 ;;      Totals:         0       0       1       0
  1693 ;;Total ram usage:        1 bytes
  1694 ;; Hardware stack levels used:    1
  1695 ;; Hardware stack levels required when called:    7
  1696 ;; This function calls:
  1697 ;;		_rand
  1698 ;;		___awmod
  1699 ;;		_ChangeLED
  1700 ;; This function is called by:
  1701 ;;		_main
  1702 ;; This function uses a non-reentrant model
  1703 ;;
  1704                           psect	text655
  1705                           	file	"main.c"
  1706                           	line	183
  1707                           	global	__size_of_Mode6
  1708  00C1                     	__size_of_Mode6	equ	__end_of_Mode6-_Mode6
  1709                           	
  1710  068D                     _Mode6:	
  1711                           	opt	stack 0
  1712                           ; Regs used in _Mode6: [wreg-fsr0h+status,2+status,0+btemp+1+pclath+cstack]
  1713                           	line	188
  1714                           	
  1715  068D                     l4703:	
  1716                           ;main.c: 185: ChangeLED(&PORTC, &PORTB,
  1717                           ;main.c: 186: rand()%200, rand()%200,
  1718                           ;main.c: 187: rand()%7, rand()%7,
  1719                           ;main.c: 188: rand()%112, rand()%112, rand()%50);
  1720  068D  3006               	movlw	(6)&0ffh
  1721  068E  1683               	bsf	status, 5	;RP0=1, select bank1
  1722  068F  1303               	bcf	status, 6	;RP1=0, select bank1
  1723  0690  00DB               	movwf	(??_Mode6+0)^080h+0
  1724  0691  085B               	movf	(??_Mode6+0)^080h+0,w
  1725  0692  00BF               	movwf	(?_ChangeLED)^080h
  1726  0693  30C8               	movlw	low(0C8h)
  1727  0694  00AD               	movwf	(?___awmod)^080h
  1728  0695  3000               	movlw	high(0C8h)
  1729  0696  00AE               	movwf	((?___awmod)^080h)+1
  1730  0697  158A  2346  118A   	fcall	_rand
  1731  069A  1683               	bsf	status, 5	;RP0=1, select bank1
  1732  069B  1303               	bcf	status, 6	;RP1=0, select bank1
  1733  069C  0835               	movf	(1+(?_rand))^080h,w
  1734  069D  01B0               	clrf	1+(?___awmod)^080h+02h
  1735  069E  07B0               	addwf	1+(?___awmod)^080h+02h
  1736  069F  0834               	movf	(0+(?_rand))^080h,w
  1737  06A0  01AF               	clrf	0+(?___awmod)^080h+02h
  1738  06A1  07AF               	addwf	0+(?___awmod)^080h+02h
  1739                           
  1740  06A2  158A  2475  118A   	fcall	___awmod
  1741  06A5  1683               	bsf	status, 5	;RP0=1, select bank1
  1742  06A6  1303               	bcf	status, 6	;RP1=0, select bank1
  1743  06A7  082E               	movf	(1+(?___awmod))^080h,w
  1744  06A8  01C1               	clrf	1+(?_ChangeLED)^080h+01h
  1745  06A9  07C1               	addwf	1+(?_ChangeLED)^080h+01h
  1746  06AA  082D               	movf	(0+(?___awmod))^080h,w
  1747  06AB  01C0               	clrf	0+(?_ChangeLED)^080h+01h
  1748  06AC  07C0               	addwf	0+(?_ChangeLED)^080h+01h
  1749                           
  1750  06AD  30C8               	movlw	low(0C8h)
  1751  06AE  00AD               	movwf	(?___awmod)^080h
  1752  06AF  3000               	movlw	high(0C8h)
  1753  06B0  00AE               	movwf	((?___awmod)^080h)+1
  1754  06B1  158A  2346  118A   	fcall	_rand
  1755  06B4  1683               	bsf	status, 5	;RP0=1, select bank1
  1756  06B5  1303               	bcf	status, 6	;RP1=0, select bank1
  1757  06B6  0835               	movf	(1+(?_rand))^080h,w
  1758  06B7  01B0               	clrf	1+(?___awmod)^080h+02h
  1759  06B8  07B0               	addwf	1+(?___awmod)^080h+02h
  1760  06B9  0834               	movf	(0+(?_rand))^080h,w
  1761  06BA  01AF               	clrf	0+(?___awmod)^080h+02h
  1762  06BB  07AF               	addwf	0+(?___awmod)^080h+02h
  1763                           
  1764  06BC  158A  2475  118A   	fcall	___awmod
  1765  06BF  1683               	bsf	status, 5	;RP0=1, select bank1
  1766  06C0  1303               	bcf	status, 6	;RP1=0, select bank1
  1767  06C1  082E               	movf	(1+(?___awmod))^080h,w
  1768  06C2  01C3               	clrf	1+(?_ChangeLED)^080h+03h
  1769  06C3  07C3               	addwf	1+(?_ChangeLED)^080h+03h
  1770  06C4  082D               	movf	(0+(?___awmod))^080h,w
  1771  06C5  01C2               	clrf	0+(?_ChangeLED)^080h+03h
  1772  06C6  07C2               	addwf	0+(?_ChangeLED)^080h+03h
  1773                           
  1774  06C7  3007               	movlw	low(07h)
  1775  06C8  00AD               	movwf	(?___awmod)^080h
  1776  06C9  3000               	movlw	high(07h)
  1777  06CA  00AE               	movwf	((?___awmod)^080h)+1
  1778  06CB  158A  2346  118A   	fcall	_rand
  1779  06CE  1683               	bsf	status, 5	;RP0=1, select bank1
  1780  06CF  1303               	bcf	status, 6	;RP1=0, select bank1
  1781  06D0  0835               	movf	(1+(?_rand))^080h,w
  1782  06D1  01B0               	clrf	1+(?___awmod)^080h+02h
  1783  06D2  07B0               	addwf	1+(?___awmod)^080h+02h
  1784  06D3  0834               	movf	(0+(?_rand))^080h,w
  1785  06D4  01AF               	clrf	0+(?___awmod)^080h+02h
  1786  06D5  07AF               	addwf	0+(?___awmod)^080h+02h
  1787                           
  1788  06D6  158A  2475  118A   	fcall	___awmod
  1789  06D9  1683               	bsf	status, 5	;RP0=1, select bank1
  1790  06DA  1303               	bcf	status, 6	;RP1=0, select bank1
  1791  06DB  082E               	movf	(1+(?___awmod))^080h,w
  1792  06DC  01C5               	clrf	1+(?_ChangeLED)^080h+05h
  1793  06DD  07C5               	addwf	1+(?_ChangeLED)^080h+05h
  1794  06DE  082D               	movf	(0+(?___awmod))^080h,w
  1795  06DF  01C4               	clrf	0+(?_ChangeLED)^080h+05h
  1796  06E0  07C4               	addwf	0+(?_ChangeLED)^080h+05h
  1797                           
  1798  06E1  3007               	movlw	low(07h)
  1799  06E2  00AD               	movwf	(?___awmod)^080h
  1800  06E3  3000               	movlw	high(07h)
  1801  06E4  00AE               	movwf	((?___awmod)^080h)+1
  1802  06E5  158A  2346  118A   	fcall	_rand
  1803  06E8  1683               	bsf	status, 5	;RP0=1, select bank1
  1804  06E9  1303               	bcf	status, 6	;RP1=0, select bank1
  1805  06EA  0835               	movf	(1+(?_rand))^080h,w
  1806  06EB  01B0               	clrf	1+(?___awmod)^080h+02h
  1807  06EC  07B0               	addwf	1+(?___awmod)^080h+02h
  1808  06ED  0834               	movf	(0+(?_rand))^080h,w
  1809  06EE  01AF               	clrf	0+(?___awmod)^080h+02h
  1810  06EF  07AF               	addwf	0+(?___awmod)^080h+02h
  1811                           
  1812  06F0  158A  2475  118A   	fcall	___awmod
  1813  06F3  1683               	bsf	status, 5	;RP0=1, select bank1
  1814  06F4  1303               	bcf	status, 6	;RP1=0, select bank1
  1815  06F5  082E               	movf	(1+(?___awmod))^080h,w
  1816  06F6  01C7               	clrf	1+(?_ChangeLED)^080h+07h
  1817  06F7  07C7               	addwf	1+(?_ChangeLED)^080h+07h
  1818  06F8  082D               	movf	(0+(?___awmod))^080h,w
  1819  06F9  01C6               	clrf	0+(?_ChangeLED)^080h+07h
  1820  06FA  07C6               	addwf	0+(?_ChangeLED)^080h+07h
  1821                           
  1822  06FB  3070               	movlw	low(070h)
  1823  06FC  00AD               	movwf	(?___awmod)^080h
  1824  06FD  3000               	movlw	high(070h)
  1825  06FE  00AE               	movwf	((?___awmod)^080h)+1
  1826  06FF  158A  2346  118A   	fcall	_rand
  1827  0702  1683               	bsf	status, 5	;RP0=1, select bank1
  1828  0703  1303               	bcf	status, 6	;RP1=0, select bank1
  1829  0704  0835               	movf	(1+(?_rand))^080h,w
  1830  0705  01B0               	clrf	1+(?___awmod)^080h+02h
  1831  0706  07B0               	addwf	1+(?___awmod)^080h+02h
  1832  0707  0834               	movf	(0+(?_rand))^080h,w
  1833  0708  01AF               	clrf	0+(?___awmod)^080h+02h
  1834  0709  07AF               	addwf	0+(?___awmod)^080h+02h
  1835                           
  1836  070A  158A  2475  118A   	fcall	___awmod
  1837  070D  1683               	bsf	status, 5	;RP0=1, select bank1
  1838  070E  1303               	bcf	status, 6	;RP1=0, select bank1
  1839  070F  082E               	movf	(1+(?___awmod))^080h,w
  1840  0710  01C9               	clrf	1+(?_ChangeLED)^080h+09h
  1841  0711  07C9               	addwf	1+(?_ChangeLED)^080h+09h
  1842  0712  082D               	movf	(0+(?___awmod))^080h,w
  1843  0713  01C8               	clrf	0+(?_ChangeLED)^080h+09h
  1844  0714  07C8               	addwf	0+(?_ChangeLED)^080h+09h
  1845                           
  1846  0715  3070               	movlw	low(070h)
  1847  0716  00AD               	movwf	(?___awmod)^080h
  1848  0717  3000               	movlw	high(070h)
  1849  0718  00AE               	movwf	((?___awmod)^080h)+1
  1850  0719  158A  2346  118A   	fcall	_rand
  1851  071C  1683               	bsf	status, 5	;RP0=1, select bank1
  1852  071D  1303               	bcf	status, 6	;RP1=0, select bank1
  1853  071E  0835               	movf	(1+(?_rand))^080h,w
  1854  071F  01B0               	clrf	1+(?___awmod)^080h+02h
  1855  0720  07B0               	addwf	1+(?___awmod)^080h+02h
  1856  0721  0834               	movf	(0+(?_rand))^080h,w
  1857  0722  01AF               	clrf	0+(?___awmod)^080h+02h
  1858  0723  07AF               	addwf	0+(?___awmod)^080h+02h
  1859                           
  1860  0724  158A  2475  118A   	fcall	___awmod
  1861  0727  1683               	bsf	status, 5	;RP0=1, select bank1
  1862  0728  1303               	bcf	status, 6	;RP1=0, select bank1
  1863  0729  082E               	movf	(1+(?___awmod))^080h,w
  1864  072A  01CB               	clrf	1+(?_ChangeLED)^080h+0Bh
  1865  072B  07CB               	addwf	1+(?_ChangeLED)^080h+0Bh
  1866  072C  082D               	movf	(0+(?___awmod))^080h,w
  1867  072D  01CA               	clrf	0+(?_ChangeLED)^080h+0Bh
  1868  072E  07CA               	addwf	0+(?_ChangeLED)^080h+0Bh
  1869                           
  1870  072F  3032               	movlw	low(032h)
  1871  0730  00AD               	movwf	(?___awmod)^080h
  1872  0731  3000               	movlw	high(032h)
  1873  0732  00AE               	movwf	((?___awmod)^080h)+1
  1874  0733  158A  2346  118A   	fcall	_rand
  1875  0736  1683               	bsf	status, 5	;RP0=1, select bank1
  1876  0737  1303               	bcf	status, 6	;RP1=0, select bank1
  1877  0738  0835               	movf	(1+(?_rand))^080h,w
  1878  0739  01B0               	clrf	1+(?___awmod)^080h+02h
  1879  073A  07B0               	addwf	1+(?___awmod)^080h+02h
  1880  073B  0834               	movf	(0+(?_rand))^080h,w
  1881  073C  01AF               	clrf	0+(?___awmod)^080h+02h
  1882  073D  07AF               	addwf	0+(?___awmod)^080h+02h
  1883                           
  1884  073E  158A  2475  118A   	fcall	___awmod
  1885  0741  1683               	bsf	status, 5	;RP0=1, select bank1
  1886  0742  1303               	bcf	status, 6	;RP1=0, select bank1
  1887  0743  082E               	movf	(1+(?___awmod))^080h,w
  1888  0744  01CD               	clrf	1+(?_ChangeLED)^080h+0Dh
  1889  0745  07CD               	addwf	1+(?_ChangeLED)^080h+0Dh
  1890  0746  082D               	movf	(0+(?___awmod))^080h,w
  1891  0747  01CC               	clrf	0+(?_ChangeLED)^080h+0Dh
  1892  0748  07CC               	addwf	0+(?_ChangeLED)^080h+0Dh
  1893                           
  1894  0749  3007               	movlw	(7)&0ffh
  1895  074A  118A  2503  118A   	fcall	_ChangeLED
  1896                           	line	189
  1897                           	
  1898  074D                     l800:	
  1899  074D  0008               	return
  1900                           	opt stack 0
  1901                           GLOBAL	__end_of_Mode6
  1902  074E                     	__end_of_Mode6:
  1903 ;; =============== function _Mode6 ends ============
  1904                           
  1905                           	signat	_Mode6,88
  1906                           	global	_Mode5
  1907                           psect	text656,local,class=CODE,delta=2
  1908                           global __ptext656
  1909  00EB                     __ptext656:
  1910                           
  1911 ;; *************** function _Mode5 *****************
  1912 ;; Defined at:
  1913 ;;		line 174 in file "main.c"
  1914 ;; Parameters:    Size  Location     Type
  1915 ;;		None
  1916 ;; Auto vars:     Size  Location     Type
  1917 ;;		None
  1918 ;; Return value:  Size  Location     Type
  1919 ;;		None               void
  1920 ;; Registers used:
  1921 ;;		wreg, fsr0l, fsr0h, status,2, status,0, btemp+1, pclath, cstack
  1922 ;; Tracked objects:
  1923 ;;		On entry : 0/0
  1924 ;;		On exit  : 0/0
  1925 ;;		Unchanged: 0/0
  1926 ;; Data sizes:     COMMON   BANK0   BANK1   BANK2
  1927 ;;      Params:         0       0       0       0
  1928 ;;      Locals:         0       0       0       0
  1929 ;;      Temps:          0       0       7       0
  1930 ;;      Totals:         0       0       7       0
  1931 ;;Total ram usage:        7 bytes
  1932 ;; Hardware stack levels used:    1
  1933 ;; Hardware stack levels required when called:    7
  1934 ;; This function calls:
  1935 ;;		_rand
  1936 ;;		___awmod
  1937 ;;		_ChangeLED
  1938 ;; This function is called by:
  1939 ;;		_main
  1940 ;; This function uses a non-reentrant model
  1941 ;;
  1942                           psect	text656
  1943                           	file	"main.c"
  1944                           	line	174
  1945                           	global	__size_of_Mode5
  1946  00D5                     	__size_of_Mode5	equ	__end_of_Mode5-_Mode5
  1947                           	
  1948  00EB                     _Mode5:	
  1949 ;; using string table level
  1950                           	opt	stack 1
  1951                           ; Regs used in _Mode5: [wreg-fsr0h+status,2+status,0+btemp+1+pclath+cstack]
  1952                           	line	179
  1953                           	
  1954  00EB                     l4701:	
  1955                           ;main.c: 176: ChangeLED(&PORTC, &PORTB,
  1956                           ;main.c: 177: led0Colors[rand()%6], led0Colors[rand()%6],
  1957                           ;main.c: 178: led1Colors[rand()%6], led1Colors[rand()%6],
  1958                           ;main.c: 179: led2Colors[rand()%6], led2Colors[rand()%6], 30);
  1959  00EB  3006               	movlw	(6)&0ffh
  1960  00EC  1683               	bsf	status, 5	;RP0=1, select bank1
  1961  00ED  1303               	bcf	status, 6	;RP1=0, select bank1
  1962  00EE  00DB               	movwf	(??_Mode5+0)^080h+0
  1963  00EF  085B               	movf	(??_Mode5+0)^080h+0,w
  1964  00F0  00BF               	movwf	(?_ChangeLED)^080h
  1965  00F1  3006               	movlw	low(06h)
  1966  00F2  00AD               	movwf	(?___awmod)^080h
  1967  00F3  3000               	movlw	high(06h)
  1968  00F4  00AE               	movwf	((?___awmod)^080h)+1
  1969  00F5  158A  2346  118A   	fcall	_rand
  1970  00F8  1683               	bsf	status, 5	;RP0=1, select bank1
  1971  00F9  1303               	bcf	status, 6	;RP1=0, select bank1
  1972  00FA  0835               	movf	(1+(?_rand))^080h,w
  1973  00FB  01B0               	clrf	1+(?___awmod)^080h+02h
  1974  00FC  07B0               	addwf	1+(?___awmod)^080h+02h
  1975  00FD  0834               	movf	(0+(?_rand))^080h,w
  1976  00FE  01AF               	clrf	0+(?___awmod)^080h+02h
  1977  00FF  07AF               	addwf	0+(?___awmod)^080h+02h
  1978                           
  1979  0100  158A  2475  118A   	fcall	___awmod
  1980  0103  1683               	bsf	status, 5	;RP0=1, select bank1
  1981  0104  1303               	bcf	status, 6	;RP1=0, select bank1
  1982  0105  082D               	movf	(0+(?___awmod))^080h,w
  1983  0106  00DC               	movwf	(??_Mode5+1)^080h+0
  1984  0107  075C               	addwf	(??_Mode5+1)^080h+0,w
  1985  0108  3E2B               	addlw	low((_led0Colors-__stringbase))
  1986  0109  0084               	movwf	fsr0
  1987  010A  118A  274E  118A   	fcall	stringdir
  1988  010D  00C0               	movwf	0+(?_ChangeLED)^080h+01h
  1989  010E  118A  274E  118A   	fcall	stringdir
  1990  0111  00C1               	movwf	1+(?_ChangeLED)^080h+01h
  1991  0112  3006               	movlw	low(06h)
  1992  0113  00AD               	movwf	(?___awmod)^080h
  1993  0114  3000               	movlw	high(06h)
  1994  0115  00AE               	movwf	((?___awmod)^080h)+1
  1995  0116  158A  2346  118A   	fcall	_rand
  1996  0119  1683               	bsf	status, 5	;RP0=1, select bank1
  1997  011A  1303               	bcf	status, 6	;RP1=0, select bank1
  1998  011B  0835               	movf	(1+(?_rand))^080h,w
  1999  011C  01B0               	clrf	1+(?___awmod)^080h+02h
  2000  011D  07B0               	addwf	1+(?___awmod)^080h+02h
  2001  011E  0834               	movf	(0+(?_rand))^080h,w
  2002  011F  01AF               	clrf	0+(?___awmod)^080h+02h
  2003  0120  07AF               	addwf	0+(?___awmod)^080h+02h
  2004                           
  2005  0121  158A  2475  118A   	fcall	___awmod
  2006  0124  1683               	bsf	status, 5	;RP0=1, select bank1
  2007  0125  1303               	bcf	status, 6	;RP1=0, select bank1
  2008  0126  082D               	movf	(0+(?___awmod))^080h,w
  2009  0127  00DD               	movwf	(??_Mode5+2)^080h+0
  2010  0128  075D               	addwf	(??_Mode5+2)^080h+0,w
  2011  0129  3E2B               	addlw	low((_led0Colors-__stringbase))
  2012  012A  0084               	movwf	fsr0
  2013  012B  118A  274E  118A   	fcall	stringdir
  2014  012E  00C2               	movwf	0+(?_ChangeLED)^080h+03h
  2015  012F  118A  274E  118A   	fcall	stringdir
  2016  0132  00C3               	movwf	1+(?_ChangeLED)^080h+03h
  2017  0133  3006               	movlw	low(06h)
  2018  0134  00AD               	movwf	(?___awmod)^080h
  2019  0135  3000               	movlw	high(06h)
  2020  0136  00AE               	movwf	((?___awmod)^080h)+1
  2021  0137  158A  2346  118A   	fcall	_rand
  2022  013A  1683               	bsf	status, 5	;RP0=1, select bank1
  2023  013B  1303               	bcf	status, 6	;RP1=0, select bank1
  2024  013C  0835               	movf	(1+(?_rand))^080h,w
  2025  013D  01B0               	clrf	1+(?___awmod)^080h+02h
  2026  013E  07B0               	addwf	1+(?___awmod)^080h+02h
  2027  013F  0834               	movf	(0+(?_rand))^080h,w
  2028  0140  01AF               	clrf	0+(?___awmod)^080h+02h
  2029  0141  07AF               	addwf	0+(?___awmod)^080h+02h
  2030                           
  2031  0142  158A  2475  118A   	fcall	___awmod
  2032  0145  1683               	bsf	status, 5	;RP0=1, select bank1
  2033  0146  1303               	bcf	status, 6	;RP1=0, select bank1
  2034  0147  082D               	movf	(0+(?___awmod))^080h,w
  2035  0148  00DE               	movwf	(??_Mode5+3)^080h+0
  2036  0149  075E               	addwf	(??_Mode5+3)^080h+0,w
  2037  014A  3E3B               	addlw	low((_led1Colors-__stringbase))
  2038  014B  0084               	movwf	fsr0
  2039  014C  118A  274E  118A   	fcall	stringdir
  2040  014F  00C4               	movwf	0+(?_ChangeLED)^080h+05h
  2041  0150  118A  274E  118A   	fcall	stringdir
  2042  0153  00C5               	movwf	1+(?_ChangeLED)^080h+05h
  2043  0154  3006               	movlw	low(06h)
  2044  0155  00AD               	movwf	(?___awmod)^080h
  2045  0156  3000               	movlw	high(06h)
  2046  0157  00AE               	movwf	((?___awmod)^080h)+1
  2047  0158  158A  2346  118A   	fcall	_rand
  2048  015B  1683               	bsf	status, 5	;RP0=1, select bank1
  2049  015C  1303               	bcf	status, 6	;RP1=0, select bank1
  2050  015D  0835               	movf	(1+(?_rand))^080h,w
  2051  015E  01B0               	clrf	1+(?___awmod)^080h+02h
  2052  015F  07B0               	addwf	1+(?___awmod)^080h+02h
  2053  0160  0834               	movf	(0+(?_rand))^080h,w
  2054  0161  01AF               	clrf	0+(?___awmod)^080h+02h
  2055  0162  07AF               	addwf	0+(?___awmod)^080h+02h
  2056                           
  2057  0163  158A  2475  118A   	fcall	___awmod
  2058  0166  1683               	bsf	status, 5	;RP0=1, select bank1
  2059  0167  1303               	bcf	status, 6	;RP1=0, select bank1
  2060  0168  082D               	movf	(0+(?___awmod))^080h,w
  2061  0169  00DF               	movwf	(??_Mode5+4)^080h+0
  2062  016A  075F               	addwf	(??_Mode5+4)^080h+0,w
  2063  016B  3E3B               	addlw	low((_led1Colors-__stringbase))
  2064  016C  0084               	movwf	fsr0
  2065  016D  118A  274E  118A   	fcall	stringdir
  2066  0170  00C6               	movwf	0+(?_ChangeLED)^080h+07h
  2067  0171  118A  274E  118A   	fcall	stringdir
  2068  0174  00C7               	movwf	1+(?_ChangeLED)^080h+07h
  2069  0175  3006               	movlw	low(06h)
  2070  0176  00AD               	movwf	(?___awmod)^080h
  2071  0177  3000               	movlw	high(06h)
  2072  0178  00AE               	movwf	((?___awmod)^080h)+1
  2073  0179  158A  2346  118A   	fcall	_rand
  2074  017C  1683               	bsf	status, 5	;RP0=1, select bank1
  2075  017D  1303               	bcf	status, 6	;RP1=0, select bank1
  2076  017E  0835               	movf	(1+(?_rand))^080h,w
  2077  017F  01B0               	clrf	1+(?___awmod)^080h+02h
  2078  0180  07B0               	addwf	1+(?___awmod)^080h+02h
  2079  0181  0834               	movf	(0+(?_rand))^080h,w
  2080  0182  01AF               	clrf	0+(?___awmod)^080h+02h
  2081  0183  07AF               	addwf	0+(?___awmod)^080h+02h
  2082                           
  2083  0184  158A  2475  118A   	fcall	___awmod
  2084  0187  1683               	bsf	status, 5	;RP0=1, select bank1
  2085  0188  1303               	bcf	status, 6	;RP1=0, select bank1
  2086  0189  082D               	movf	(0+(?___awmod))^080h,w
  2087  018A  00E0               	movwf	(??_Mode5+5)^080h+0
  2088  018B  0760               	addwf	(??_Mode5+5)^080h+0,w
  2089  018C  3E4B               	addlw	low((_led2Colors-__stringbase))
  2090  018D  0084               	movwf	fsr0
  2091  018E  118A  274E  118A   	fcall	stringdir
  2092  0191  00C8               	movwf	0+(?_ChangeLED)^080h+09h
  2093  0192  118A  274E  118A   	fcall	stringdir
  2094  0195  00C9               	movwf	1+(?_ChangeLED)^080h+09h
  2095  0196  3006               	movlw	low(06h)
  2096  0197  00AD               	movwf	(?___awmod)^080h
  2097  0198  3000               	movlw	high(06h)
  2098  0199  00AE               	movwf	((?___awmod)^080h)+1
  2099  019A  158A  2346  118A   	fcall	_rand
  2100  019D  1683               	bsf	status, 5	;RP0=1, select bank1
  2101  019E  1303               	bcf	status, 6	;RP1=0, select bank1
  2102  019F  0835               	movf	(1+(?_rand))^080h,w
  2103  01A0  01B0               	clrf	1+(?___awmod)^080h+02h
  2104  01A1  07B0               	addwf	1+(?___awmod)^080h+02h
  2105  01A2  0834               	movf	(0+(?_rand))^080h,w
  2106  01A3  01AF               	clrf	0+(?___awmod)^080h+02h
  2107  01A4  07AF               	addwf	0+(?___awmod)^080h+02h
  2108                           
  2109  01A5  158A  2475  118A   	fcall	___awmod
  2110  01A8  1683               	bsf	status, 5	;RP0=1, select bank1
  2111  01A9  1303               	bcf	status, 6	;RP1=0, select bank1
  2112  01AA  082D               	movf	(0+(?___awmod))^080h,w
  2113  01AB  00E1               	movwf	(??_Mode5+6)^080h+0
  2114  01AC  0761               	addwf	(??_Mode5+6)^080h+0,w
  2115  01AD  3E4B               	addlw	low((_led2Colors-__stringbase))
  2116  01AE  0084               	movwf	fsr0
  2117  01AF  118A  274E  118A   	fcall	stringdir
  2118  01B2  00CA               	movwf	0+(?_ChangeLED)^080h+0Bh
  2119  01B3  118A  274E  118A   	fcall	stringdir
  2120  01B6  00CB               	movwf	1+(?_ChangeLED)^080h+0Bh
  2121  01B7  301E               	movlw	low(01Eh)
  2122  01B8  00CC               	movwf	0+(?_ChangeLED)^080h+0Dh
  2123  01B9  3000               	movlw	high(01Eh)
  2124  01BA  00CD               	movwf	(0+(?_ChangeLED)^080h+0Dh)+1
  2125  01BB  3007               	movlw	(7)&0ffh
  2126  01BC  118A  2503  118A   	fcall	_ChangeLED
  2127                           	line	180
  2128                           	
  2129  01BF                     l797:	
  2130  01BF  0008               	return
  2131                           	opt stack 0
  2132                           GLOBAL	__end_of_Mode5
  2133  01C0                     	__end_of_Mode5:
  2134 ;; =============== function _Mode5 ends ============
  2135                           
  2136                           	signat	_Mode5,88
  2137                           	global	_Mode3
  2138                           psect	text657,local,class=CODE,delta=2
  2139                           global __ptext657
  2140  0369                     __ptext657:
  2141                           
  2142 ;; *************** function _Mode3 *****************
  2143 ;; Defined at:
  2144 ;;		line 133 in file "main.c"
  2145 ;; Parameters:    Size  Location     Type
  2146 ;;  string1         2   59[BANK1 ] int 
  2147 ;;  string3         2   61[BANK1 ] int 
  2148 ;; Auto vars:     Size  Location     Type
  2149 ;;  newstring3      2   68[BANK1 ] int 
  2150 ;;  newstring1      2   66[BANK1 ] int 
  2151 ;;  string2         2   64[BANK1 ] int 
  2152 ;; Return value:  Size  Location     Type
  2153 ;;		None               void
  2154 ;; Registers used:
  2155 ;;		wreg, fsr0l, fsr0h, status,2, status,0, btemp+1, pclath, cstack
  2156 ;; Tracked objects:
  2157 ;;		On entry : 0/0
  2158 ;;		On exit  : 0/0
  2159 ;;		Unchanged: 0/0
  2160 ;; Data sizes:     COMMON   BANK0   BANK1   BANK2
  2161 ;;      Params:         0       0       4       0
  2162 ;;      Locals:         0       0       6       0
  2163 ;;      Temps:          0       0       1       0
  2164 ;;      Totals:         0       0      11       0
  2165 ;;Total ram usage:       11 bytes
  2166 ;; Hardware stack levels used:    1
  2167 ;; Hardware stack levels required when called:    7
  2168 ;; This function calls:
  2169 ;;		_rand
  2170 ;;		___awmod
  2171 ;;		_ChangeLED
  2172 ;;		_Mode3
  2173 ;; This function is called by:
  2174 ;;		_main
  2175 ;; This function uses a non-reentrant model
  2176 ;;
  2177                           psect	text657
  2178                           	file	"main.c"
  2179                           	line	133
  2180                           	global	__size_of_Mode3
  2181  00CD                     	__size_of_Mode3	equ	__end_of_Mode3-_Mode3
  2182                           	
  2183  0369                     _Mode3:	
  2184 ;; using string table level
  2185                           	opt	stack 1
  2186                           ; Regs used in _Mode3: [wreg-fsr0h+status,2+status,0+btemp+1+pclath+cstack]
  2187                           	line	137
  2188                           	
  2189  0369                     l4689:	
  2190                           ;main.c: 137: int string2 = led1Colors[rand()%6];
  2191  0369  3006               	movlw	low(06h)
  2192  036A  1683               	bsf	status, 5	;RP0=1, select bank1
  2193  036B  1303               	bcf	status, 6	;RP1=0, select bank1
  2194  036C  00AD               	movwf	(?___awmod)^080h
  2195  036D  3000               	movlw	high(06h)
  2196  036E  00AE               	movwf	((?___awmod)^080h)+1
  2197  036F  158A  2346  118A   	fcall	_rand
  2198  0372  1683               	bsf	status, 5	;RP0=1, select bank1
  2199  0373  1303               	bcf	status, 6	;RP1=0, select bank1
  2200  0374  0835               	movf	(1+(?_rand))^080h,w
  2201  0375  01B0               	clrf	1+(?___awmod)^080h+02h
  2202  0376  07B0               	addwf	1+(?___awmod)^080h+02h
  2203  0377  0834               	movf	(0+(?_rand))^080h,w
  2204  0378  01AF               	clrf	0+(?___awmod)^080h+02h
  2205  0379  07AF               	addwf	0+(?___awmod)^080h+02h
  2206                           
  2207  037A  158A  2475  118A   	fcall	___awmod
  2208  037D  1683               	bsf	status, 5	;RP0=1, select bank1
  2209  037E  1303               	bcf	status, 6	;RP1=0, select bank1
  2210  037F  082D               	movf	(0+(?___awmod))^080h,w
  2211  0380  00DF               	movwf	(??_Mode3+0)^080h+0
  2212  0381  075F               	addwf	(??_Mode3+0)^080h+0,w
  2213  0382  3E3B               	addlw	low((_led1Colors-__stringbase))
  2214  0383  0084               	movwf	fsr0
  2215  0384  118A  274E  118A   	fcall	stringdir
  2216  0387  00E0               	movwf	(Mode3@string2)^080h
  2217  0388  118A  274E  118A   	fcall	stringdir
  2218  038B  00E1               	movwf	(Mode3@string2+1)^080h
  2219                           	line	142
  2220                           	
  2221  038C                     l4691:	
  2222                           ;main.c: 139: ChangeLED(&PORTC, &PORTB,
  2223                           ;main.c: 140: string1, 0,
  2224                           ;main.c: 141: 0, string2,
  2225                           ;main.c: 142: string3, 0, 20);
  2226  038C  3006               	movlw	(6)&0ffh
  2227  038D  00DF               	movwf	(??_Mode3+0)^080h+0
  2228  038E  085F               	movf	(??_Mode3+0)^080h+0,w
  2229  038F  00BF               	movwf	(?_ChangeLED)^080h
  2230  0390  085C               	movf	(Mode3@string1+1)^080h,w
  2231  0391  01C1               	clrf	1+(?_ChangeLED)^080h+01h
  2232  0392  07C1               	addwf	1+(?_ChangeLED)^080h+01h
  2233  0393  085B               	movf	(Mode3@string1)^080h,w
  2234  0394  01C0               	clrf	0+(?_ChangeLED)^080h+01h
  2235  0395  07C0               	addwf	0+(?_ChangeLED)^080h+01h
  2236                           
  2237  0396  3000               	movlw	low(0)
  2238  0397  00C2               	movwf	0+(?_ChangeLED)^080h+03h
  2239  0398  3000               	movlw	high(0)
  2240  0399  00C3               	movwf	(0+(?_ChangeLED)^080h+03h)+1
  2241  039A  3000               	movlw	low(0)
  2242  039B  00C4               	movwf	0+(?_ChangeLED)^080h+05h
  2243  039C  3000               	movlw	high(0)
  2244  039D  00C5               	movwf	(0+(?_ChangeLED)^080h+05h)+1
  2245  039E  0861               	movf	(Mode3@string2+1)^080h,w
  2246  039F  01C7               	clrf	1+(?_ChangeLED)^080h+07h
  2247  03A0  07C7               	addwf	1+(?_ChangeLED)^080h+07h
  2248  03A1  0860               	movf	(Mode3@string2)^080h,w
  2249  03A2  01C6               	clrf	0+(?_ChangeLED)^080h+07h
  2250  03A3  07C6               	addwf	0+(?_ChangeLED)^080h+07h
  2251                           
  2252  03A4  085E               	movf	(Mode3@string3+1)^080h,w
  2253  03A5  01C9               	clrf	1+(?_ChangeLED)^080h+09h
  2254  03A6  07C9               	addwf	1+(?_ChangeLED)^080h+09h
  2255  03A7  085D               	movf	(Mode3@string3)^080h,w
  2256  03A8  01C8               	clrf	0+(?_ChangeLED)^080h+09h
  2257  03A9  07C8               	addwf	0+(?_ChangeLED)^080h+09h
  2258                           
  2259  03AA  3000               	movlw	low(0)
  2260  03AB  00CA               	movwf	0+(?_ChangeLED)^080h+0Bh
  2261  03AC  3000               	movlw	high(0)
  2262  03AD  00CB               	movwf	(0+(?_ChangeLED)^080h+0Bh)+1
  2263  03AE  3014               	movlw	low(014h)
  2264  03AF  00CC               	movwf	0+(?_ChangeLED)^080h+0Dh
  2265  03B0  3000               	movlw	high(014h)
  2266  03B1  00CD               	movwf	(0+(?_ChangeLED)^080h+0Dh)+1
  2267  03B2  3007               	movlw	(7)&0ffh
  2268  03B3  118A  2503  118A   	fcall	_ChangeLED
  2269                           	line	145
  2270                           	
  2271  03B6                     l4693:	
  2272                           ;main.c: 145: int newstring1 = led0Colors[rand()%6];
  2273  03B6  3006               	movlw	low(06h)
  2274  03B7  1683               	bsf	status, 5	;RP0=1, select bank1
  2275  03B8  1303               	bcf	status, 6	;RP1=0, select bank1
  2276  03B9  00AD               	movwf	(?___awmod)^080h
  2277  03BA  3000               	movlw	high(06h)
  2278  03BB  00AE               	movwf	((?___awmod)^080h)+1
  2279  03BC  158A  2346  118A   	fcall	_rand
  2280  03BF  1683               	bsf	status, 5	;RP0=1, select bank1
  2281  03C0  1303               	bcf	status, 6	;RP1=0, select bank1
  2282  03C1  0835               	movf	(1+(?_rand))^080h,w
  2283  03C2  01B0               	clrf	1+(?___awmod)^080h+02h
  2284  03C3  07B0               	addwf	1+(?___awmod)^080h+02h
  2285  03C4  0834               	movf	(0+(?_rand))^080h,w
  2286  03C5  01AF               	clrf	0+(?___awmod)^080h+02h
  2287  03C6  07AF               	addwf	0+(?___awmod)^080h+02h
  2288                           
  2289  03C7  158A  2475  118A   	fcall	___awmod
  2290  03CA  1683               	bsf	status, 5	;RP0=1, select bank1
  2291  03CB  1303               	bcf	status, 6	;RP1=0, select bank1
  2292  03CC  082D               	movf	(0+(?___awmod))^080h,w
  2293  03CD  00DF               	movwf	(??_Mode3+0)^080h+0
  2294  03CE  075F               	addwf	(??_Mode3+0)^080h+0,w
  2295  03CF  3E2B               	addlw	low((_led0Colors-__stringbase))
  2296  03D0  0084               	movwf	fsr0
  2297  03D1  118A  274E  118A   	fcall	stringdir
  2298  03D4  00E2               	movwf	(Mode3@newstring1)^080h
  2299  03D5  118A  274E  118A   	fcall	stringdir
  2300  03D8  00E3               	movwf	(Mode3@newstring1+1)^080h
  2301                           	line	146
  2302                           	
  2303  03D9                     l4695:	
  2304                           ;main.c: 146: int newstring3 = led2Colors[rand()%6];
  2305  03D9  3006               	movlw	low(06h)
  2306  03DA  00AD               	movwf	(?___awmod)^080h
  2307  03DB  3000               	movlw	high(06h)
  2308  03DC  00AE               	movwf	((?___awmod)^080h)+1
  2309  03DD  158A  2346  118A   	fcall	_rand
  2310  03E0  1683               	bsf	status, 5	;RP0=1, select bank1
  2311  03E1  1303               	bcf	status, 6	;RP1=0, select bank1
  2312  03E2  0835               	movf	(1+(?_rand))^080h,w
  2313  03E3  01B0               	clrf	1+(?___awmod)^080h+02h
  2314  03E4  07B0               	addwf	1+(?___awmod)^080h+02h
  2315  03E5  0834               	movf	(0+(?_rand))^080h,w
  2316  03E6  01AF               	clrf	0+(?___awmod)^080h+02h
  2317  03E7  07AF               	addwf	0+(?___awmod)^080h+02h
  2318                           
  2319  03E8  158A  2475  118A   	fcall	___awmod
  2320  03EB  1683               	bsf	status, 5	;RP0=1, select bank1
  2321  03EC  1303               	bcf	status, 6	;RP1=0, select bank1
  2322  03ED  082D               	movf	(0+(?___awmod))^080h,w
  2323  03EE  00DF               	movwf	(??_Mode3+0)^080h+0
  2324  03EF  075F               	addwf	(??_Mode3+0)^080h+0,w
  2325  03F0  3E4B               	addlw	low((_led2Colors-__stringbase))
  2326  03F1  0084               	movwf	fsr0
  2327  03F2  118A  274E  118A   	fcall	stringdir
  2328  03F5  00E4               	movwf	(Mode3@newstring3)^080h
  2329  03F6  118A  274E  118A   	fcall	stringdir
  2330  03F9  00E5               	movwf	(Mode3@newstring3+1)^080h
  2331                           	line	151
  2332                           	
  2333  03FA                     l4697:	
  2334                           ;main.c: 148: ChangeLED(&PORTC, &PORTB,
  2335                           ;main.c: 149: 0, newstring1,
  2336                           ;main.c: 150: string2, 0,
  2337                           ;main.c: 151: 0, newstring3, 20);
  2338  03FA  3006               	movlw	(6)&0ffh
  2339  03FB  00DF               	movwf	(??_Mode3+0)^080h+0
  2340  03FC  085F               	movf	(??_Mode3+0)^080h+0,w
  2341  03FD  00BF               	movwf	(?_ChangeLED)^080h
  2342  03FE  3000               	movlw	low(0)
  2343  03FF  00C0               	movwf	0+(?_ChangeLED)^080h+01h
  2344  0400  3000               	movlw	high(0)
  2345  0401  00C1               	movwf	(0+(?_ChangeLED)^080h+01h)+1
  2346  0402  0863               	movf	(Mode3@newstring1+1)^080h,w
  2347  0403  01C3               	clrf	1+(?_ChangeLED)^080h+03h
  2348  0404  07C3               	addwf	1+(?_ChangeLED)^080h+03h
  2349  0405  0862               	movf	(Mode3@newstring1)^080h,w
  2350  0406  01C2               	clrf	0+(?_ChangeLED)^080h+03h
  2351  0407  07C2               	addwf	0+(?_ChangeLED)^080h+03h
  2352                           
  2353  0408  0861               	movf	(Mode3@string2+1)^080h,w
  2354  0409  01C5               	clrf	1+(?_ChangeLED)^080h+05h
  2355  040A  07C5               	addwf	1+(?_ChangeLED)^080h+05h
  2356  040B  0860               	movf	(Mode3@string2)^080h,w
  2357  040C  01C4               	clrf	0+(?_ChangeLED)^080h+05h
  2358  040D  07C4               	addwf	0+(?_ChangeLED)^080h+05h
  2359                           
  2360  040E  3000               	movlw	low(0)
  2361  040F  00C6               	movwf	0+(?_ChangeLED)^080h+07h
  2362  0410  3000               	movlw	high(0)
  2363  0411  00C7               	movwf	(0+(?_ChangeLED)^080h+07h)+1
  2364  0412  3000               	movlw	low(0)
  2365  0413  00C8               	movwf	0+(?_ChangeLED)^080h+09h
  2366  0414  3000               	movlw	high(0)
  2367  0415  00C9               	movwf	(0+(?_ChangeLED)^080h+09h)+1
  2368  0416  0865               	movf	(Mode3@newstring3+1)^080h,w
  2369  0417  01CB               	clrf	1+(?_ChangeLED)^080h+0Bh
  2370  0418  07CB               	addwf	1+(?_ChangeLED)^080h+0Bh
  2371  0419  0864               	movf	(Mode3@newstring3)^080h,w
  2372  041A  01CA               	clrf	0+(?_ChangeLED)^080h+0Bh
  2373  041B  07CA               	addwf	0+(?_ChangeLED)^080h+0Bh
  2374                           
  2375  041C  3014               	movlw	low(014h)
  2376  041D  00CC               	movwf	0+(?_ChangeLED)^080h+0Dh
  2377  041E  3000               	movlw	high(014h)
  2378  041F  00CD               	movwf	(0+(?_ChangeLED)^080h+0Dh)+1
  2379  0420  3007               	movlw	(7)&0ffh
  2380  0421  118A  2503  118A   	fcall	_ChangeLED
  2381                           	line	154
  2382                           	
  2383  0424                     l4699:	
  2384                           ;main.c: 154: Mode3(newstring1, newstring3);
  2385  0424  1683               	bsf	status, 5	;RP0=1, select bank1
  2386  0425  1303               	bcf	status, 6	;RP1=0, select bank1
  2387  0426  0863               	movf	(Mode3@newstring1+1)^080h,w
  2388  0427  01DC               	clrf	(?_Mode3+1)^080h
  2389  0428  07DC               	addwf	(?_Mode3+1)^080h
  2390  0429  0862               	movf	(Mode3@newstring1)^080h,w
  2391  042A  01DB               	clrf	(?_Mode3)^080h
  2392  042B  07DB               	addwf	(?_Mode3)^080h
  2393                           
  2394  042C  0865               	movf	(Mode3@newstring3+1)^080h,w
  2395  042D  01DE               	clrf	1+(?_Mode3)^080h+02h
  2396  042E  07DE               	addwf	1+(?_Mode3)^080h+02h
  2397  042F  0864               	movf	(Mode3@newstring3)^080h,w
  2398  0430  01DD               	clrf	0+(?_Mode3)^080h+02h
  2399  0431  07DD               	addwf	0+(?_Mode3)^080h+02h
  2400                           
  2401  0432  118A  2369  118A   	fcall	_Mode3
  2402                           	line	155
  2403                           	
  2404  0435                     l791:	
  2405  0435  0008               	return
  2406                           	opt stack 0
  2407                           GLOBAL	__end_of_Mode3
  2408  0436                     	__end_of_Mode3:
  2409 ;; =============== function _Mode3 ends ============
  2410                           
  2411                           	signat	_Mode3,8312
  2412                           	global	_Mode1
  2413                           psect	text658,local,class=CODE,delta=2
  2414                           global __ptext658
  2415  0013                     __ptext658:
  2416                           
  2417 ;; *************** function _Mode1 *****************
  2418 ;; Defined at:
  2419 ;;		line 102 in file "main.c"
  2420 ;; Parameters:    Size  Location     Type
  2421 ;;		None
  2422 ;; Auto vars:     Size  Location     Type
  2423 ;;  i               2   66[BANK1 ] int 
  2424 ;;  j               2   68[BANK1 ] int 
  2425 ;; Return value:  Size  Location     Type
  2426 ;;		None               void
  2427 ;; Registers used:
  2428 ;;		wreg, fsr0l, fsr0h, status,2, status,0, btemp+1, pclath, cstack
  2429 ;; Tracked objects:
  2430 ;;		On entry : 0/0
  2431 ;;		On exit  : 0/0
  2432 ;;		Unchanged: 0/0
  2433 ;; Data sizes:     COMMON   BANK0   BANK1   BANK2
  2434 ;;      Params:         0       0       0       0
  2435 ;;      Locals:         0       0       4       0
  2436 ;;      Temps:          0       0       7       0
  2437 ;;      Totals:         0       0      11       0
  2438 ;;Total ram usage:       11 bytes
  2439 ;; Hardware stack levels used:    1
  2440 ;; Hardware stack levels required when called:    6
  2441 ;; This function calls:
  2442 ;;		_ChangeLED
  2443 ;; This function is called by:
  2444 ;;		_main
  2445 ;; This function uses a non-reentrant model
  2446 ;;
  2447                           psect	text658
  2448                           	file	"main.c"
  2449                           	line	102
  2450                           	global	__size_of_Mode1
  2451  00D8                     	__size_of_Mode1	equ	__end_of_Mode1-_Mode1
  2452                           	
  2453  0013                     _Mode1:	
  2454                           	opt	stack 1
  2455                           ; Regs used in _Mode1: [wreg-fsr0h+status,2+status,0+btemp+1+pclath+cstack]
  2456                           	line	108
  2457                           	
  2458  0013                     l4663:	
  2459                           ;main.c: 108: PORTC = red0 | red1;
  2460  0013  3075               	movlw	(_red1-__stringbase)
  2461  0014  0084               	movwf	fsr0
  2462  0015  118A  274E  118A   	fcall	stringdir
  2463  0018  1683               	bsf	status, 5	;RP0=1, select bank1
  2464  0019  1303               	bcf	status, 6	;RP1=0, select bank1
  2465  001A  00DB               	movwf	(??_Mode1+0)^080h+0
  2466  001B  3073               	movlw	(_red0-__stringbase)
  2467  001C  0084               	movwf	fsr0
  2468  001D  118A  274E  118A   	fcall	stringdir
  2469  0020  045B               	iorwf	(??_Mode1+0)^080h+0,w
  2470  0021  1283               	bcf	status, 5	;RP0=0, select bank0
  2471  0022  1303               	bcf	status, 6	;RP1=0, select bank0
  2472  0023  0087               	movwf	(7)	;volatile
  2473                           	line	109
  2474                           	
  2475  0024                     l4665:	
  2476                           ;main.c: 109: PORTB = red2;
  2477  0024  3077               	movlw	(_red2-__stringbase)
  2478  0025  0084               	movwf	fsr0
  2479  0026  118A  274E  118A   	fcall	stringdir
  2480  0029  0086               	movwf	(6)	;volatile
  2481                           	line	112
  2482                           	
  2483  002A                     l4667:	
  2484                           ;main.c: 112: for (int j=0; j<7; j++)
  2485  002A  1683               	bsf	status, 5	;RP0=1, select bank1
  2486  002B  1303               	bcf	status, 6	;RP1=0, select bank1
  2487  002C  01E4               	clrf	(Mode1@j)^080h
  2488  002D  01E5               	clrf	(Mode1@j+1)^080h
  2489                           	
  2490  002E                     l4669:	
  2491  002E  0865               	movf	(Mode1@j+1)^080h,w
  2492  002F  3A80               	xorlw	80h
  2493  0030  00FF               	movwf	btemp+1
  2494  0031  3080               	movlw	(high(07h))^80h
  2495  0032  027F               	subwf	btemp+1,w
  2496  0033  1D03               	skipz
  2497  0034  2837               	goto	u3685
  2498  0035  3007               	movlw	low(07h)
  2499  0036  0264               	subwf	(Mode1@j)^080h,w
  2500  0037                     u3685:
  2501                           
  2502  0037  1C03               	skipc
  2503  0038  283A               	goto	u3681
  2504  0039  283B               	goto	u3680
  2505  003A                     u3681:
  2506  003A  283D               	goto	l4673
  2507  003B                     u3680:
  2508  003B  28EA               	goto	l785
  2509                           	
  2510  003C                     l4671:	
  2511  003C  28EA               	goto	l785
  2512                           	line	113
  2513                           	
  2514  003D                     l781:	
  2515                           	line	114
  2516                           	
  2517  003D                     l4673:	
  2518                           ;main.c: 113: {
  2519                           ;main.c: 114: for(int i=0; i<8; i++)
  2520  003D  1683               	bsf	status, 5	;RP0=1, select bank1
  2521  003E  1303               	bcf	status, 6	;RP1=0, select bank1
  2522  003F  01E2               	clrf	(Mode1@i)^080h
  2523  0040  01E3               	clrf	(Mode1@i+1)^080h
  2524                           	
  2525  0041                     l4675:	
  2526  0041  0863               	movf	(Mode1@i+1)^080h,w
  2527  0042  3A80               	xorlw	80h
  2528  0043  00FF               	movwf	btemp+1
  2529  0044  3080               	movlw	(high(08h))^80h
  2530  0045  027F               	subwf	btemp+1,w
  2531  0046  1D03               	skipz
  2532  0047  284A               	goto	u3695
  2533  0048  3008               	movlw	low(08h)
  2534  0049  0262               	subwf	(Mode1@i)^080h,w
  2535  004A                     u3695:
  2536                           
  2537  004A  1C03               	skipc
  2538  004B  284D               	goto	u3691
  2539  004C  284E               	goto	u3690
  2540  004D                     u3691:
  2541  004D  2850               	goto	l4679
  2542  004E                     u3690:
  2543  004E  2875               	goto	l4683
  2544                           	
  2545  004F                     l4677:	
  2546  004F  2875               	goto	l4683
  2547                           	line	115
  2548                           	
  2549  0050                     l783:	
  2550                           	line	116
  2551                           	
  2552  0050                     l4679:	
  2553                           ;main.c: 115: {
  2554                           ;main.c: 116: _delay((unsigned long)((500)*(4000000/4000.0)));
  2555                           	opt asmopt_off
  2556  0050  3003               movlw  3
  2557  0051  1683               	bsf	status, 5	;RP0=1, select bank1
  2558  0052  1303               	bcf	status, 6	;RP1=0, select bank1
  2559  0053  00DD               movwf	((??_Mode1+0)^080h+0+2),f
  2560  0054  308A               movlw	138
  2561  0055  00DC               movwf	((??_Mode1+0)^080h+0+1),f
  2562  0056  3056               	movlw	86
  2563  0057  00DB               movwf	((??_Mode1+0)^080h+0),f
  2564  0058                     u3797:
  2565  0058  0BDB               	decfsz	((??_Mode1+0)^080h+0),f
  2566  0059  2858               	goto	u3797
  2567  005A  0BDC               	decfsz	((??_Mode1+0)^080h+0+1),f
  2568  005B  2858               	goto	u3797
  2569  005C  0BDD               	decfsz	((??_Mode1+0)^080h+0+2),f
  2570  005D  2858               	goto	u3797
  2571  005E  285F               	nop2
  2572                           opt asmopt_on
  2573                           
  2574                           	line	114
  2575  005F  3001               	movlw	low(01h)
  2576  0060  1683               	bsf	status, 5	;RP0=1, select bank1
  2577  0061  1303               	bcf	status, 6	;RP1=0, select bank1
  2578  0062  07E2               	addwf	(Mode1@i)^080h,f
  2579  0063  1803               	skipnc
  2580  0064  0AE3               	incf	(Mode1@i+1)^080h,f
  2581  0065  3000               	movlw	high(01h)
  2582  0066  07E3               	addwf	(Mode1@i+1)^080h,f
  2583                           	
  2584  0067                     l4681:	
  2585  0067  0863               	movf	(Mode1@i+1)^080h,w
  2586  0068  3A80               	xorlw	80h
  2587  0069  00FF               	movwf	btemp+1
  2588  006A  3080               	movlw	(high(08h))^80h
  2589  006B  027F               	subwf	btemp+1,w
  2590  006C  1D03               	skipz
  2591  006D  2870               	goto	u3705
  2592  006E  3008               	movlw	low(08h)
  2593  006F  0262               	subwf	(Mode1@i)^080h,w
  2594  0070                     u3705:
  2595                           
  2596  0070  1C03               	skipc
  2597  0071  2873               	goto	u3701
  2598  0072  2874               	goto	u3700
  2599  0073                     u3701:
  2600  0073  2850               	goto	l4679
  2601  0074                     u3700:
  2602  0074  2875               	goto	l4683
  2603                           	
  2604  0075                     l784:	
  2605                           	line	121
  2606                           	
  2607  0075                     l4683:	
  2608                           ;main.c: 117: }
  2609                           ;main.c: 118: ChangeLED(&PORTC, &PORTB,
  2610                           ;main.c: 119: led0Colors[j], led0Colors[j+1],
  2611                           ;main.c: 120: led1Colors[j], led1Colors[j+1],
  2612                           ;main.c: 121: led2Colors[j], led2Colors[j+1], 28);
  2613  0075  3006               	movlw	(6)&0ffh
  2614  0076  1683               	bsf	status, 5	;RP0=1, select bank1
  2615  0077  1303               	bcf	status, 6	;RP1=0, select bank1
  2616  0078  00DB               	movwf	(??_Mode1+0)^080h+0
  2617  0079  085B               	movf	(??_Mode1+0)^080h+0,w
  2618  007A  00BF               	movwf	(?_ChangeLED)^080h
  2619  007B  0864               	movf	(Mode1@j)^080h,w
  2620  007C  00DC               	movwf	(??_Mode1+1)^080h+0
  2621  007D  075C               	addwf	(??_Mode1+1)^080h+0,w
  2622  007E  3E2B               	addlw	low((_led0Colors-__stringbase))
  2623  007F  0084               	movwf	fsr0
  2624  0080  118A  274E  118A   	fcall	stringdir
  2625  0083  00C0               	movwf	0+(?_ChangeLED)^080h+01h
  2626  0084  118A  274E  118A   	fcall	stringdir
  2627  0087  00C1               	movwf	1+(?_ChangeLED)^080h+01h
  2628  0088  0864               	movf	(Mode1@j)^080h,w
  2629  0089  00DD               	movwf	(??_Mode1+2)^080h+0
  2630  008A  075D               	addwf	(??_Mode1+2)^080h+0,w
  2631  008B  3E02               	addlw	02h
  2632  008C  3E2B               	addlw	low((_led0Colors-__stringbase))
  2633  008D  0084               	movwf	fsr0
  2634  008E  118A  274E  118A   	fcall	stringdir
  2635  0091  00C2               	movwf	0+(?_ChangeLED)^080h+03h
  2636  0092  118A  274E  118A   	fcall	stringdir
  2637  0095  00C3               	movwf	1+(?_ChangeLED)^080h+03h
  2638  0096  0864               	movf	(Mode1@j)^080h,w
  2639  0097  00DE               	movwf	(??_Mode1+3)^080h+0
  2640  0098  075E               	addwf	(??_Mode1+3)^080h+0,w
  2641  0099  3E3B               	addlw	low((_led1Colors-__stringbase))
  2642  009A  0084               	movwf	fsr0
  2643  009B  118A  274E  118A   	fcall	stringdir
  2644  009E  00C4               	movwf	0+(?_ChangeLED)^080h+05h
  2645  009F  118A  274E  118A   	fcall	stringdir
  2646  00A2  00C5               	movwf	1+(?_ChangeLED)^080h+05h
  2647  00A3  0864               	movf	(Mode1@j)^080h,w
  2648  00A4  00DF               	movwf	(??_Mode1+4)^080h+0
  2649  00A5  075F               	addwf	(??_Mode1+4)^080h+0,w
  2650  00A6  3E02               	addlw	02h
  2651  00A7  3E3B               	addlw	low((_led1Colors-__stringbase))
  2652  00A8  0084               	movwf	fsr0
  2653  00A9  118A  274E  118A   	fcall	stringdir
  2654  00AC  00C6               	movwf	0+(?_ChangeLED)^080h+07h
  2655  00AD  118A  274E  118A   	fcall	stringdir
  2656  00B0  00C7               	movwf	1+(?_ChangeLED)^080h+07h
  2657  00B1  0864               	movf	(Mode1@j)^080h,w
  2658  00B2  00E0               	movwf	(??_Mode1+5)^080h+0
  2659  00B3  0760               	addwf	(??_Mode1+5)^080h+0,w
  2660  00B4  3E4B               	addlw	low((_led2Colors-__stringbase))
  2661  00B5  0084               	movwf	fsr0
  2662  00B6  118A  274E  118A   	fcall	stringdir
  2663  00B9  00C8               	movwf	0+(?_ChangeLED)^080h+09h
  2664  00BA  118A  274E  118A   	fcall	stringdir
  2665  00BD  00C9               	movwf	1+(?_ChangeLED)^080h+09h
  2666  00BE  0864               	movf	(Mode1@j)^080h,w
  2667  00BF  00E1               	movwf	(??_Mode1+6)^080h+0
  2668  00C0  0761               	addwf	(??_Mode1+6)^080h+0,w
  2669  00C1  3E02               	addlw	02h
  2670  00C2  3E4B               	addlw	low((_led2Colors-__stringbase))
  2671  00C3  0084               	movwf	fsr0
  2672  00C4  118A  274E  118A   	fcall	stringdir
  2673  00C7  00CA               	movwf	0+(?_ChangeLED)^080h+0Bh
  2674  00C8  118A  274E  118A   	fcall	stringdir
  2675  00CB  00CB               	movwf	1+(?_ChangeLED)^080h+0Bh
  2676  00CC  301C               	movlw	low(01Ch)
  2677  00CD  00CC               	movwf	0+(?_ChangeLED)^080h+0Dh
  2678  00CE  3000               	movlw	high(01Ch)
  2679  00CF  00CD               	movwf	(0+(?_ChangeLED)^080h+0Dh)+1
  2680  00D0  3007               	movlw	(7)&0ffh
  2681  00D1  118A  2503  118A   	fcall	_ChangeLED
  2682                           	line	112
  2683                           	
  2684  00D4                     l4685:	
  2685  00D4  3001               	movlw	low(01h)
  2686  00D5  1683               	bsf	status, 5	;RP0=1, select bank1
  2687  00D6  1303               	bcf	status, 6	;RP1=0, select bank1
  2688  00D7  07E4               	addwf	(Mode1@j)^080h,f
  2689  00D8  1803               	skipnc
  2690  00D9  0AE5               	incf	(Mode1@j+1)^080h,f
  2691  00DA  3000               	movlw	high(01h)
  2692  00DB  07E5               	addwf	(Mode1@j+1)^080h,f
  2693                           	
  2694  00DC                     l4687:	
  2695  00DC  0865               	movf	(Mode1@j+1)^080h,w
  2696  00DD  3A80               	xorlw	80h
  2697  00DE  00FF               	movwf	btemp+1
  2698  00DF  3080               	movlw	(high(07h))^80h
  2699  00E0  027F               	subwf	btemp+1,w
  2700  00E1  1D03               	skipz
  2701  00E2  28E5               	goto	u3715
  2702  00E3  3007               	movlw	low(07h)
  2703  00E4  0264               	subwf	(Mode1@j)^080h,w
  2704  00E5                     u3715:
  2705                           
  2706  00E5  1C03               	skipc
  2707  00E6  28E8               	goto	u3711
  2708  00E7  28E9               	goto	u3710
  2709  00E8                     u3711:
  2710  00E8  283D               	goto	l4673
  2711  00E9                     u3710:
  2712  00E9  28EA               	goto	l785
  2713                           	
  2714  00EA                     l782:	
  2715                           	line	123
  2716                           	
  2717  00EA                     l785:	
  2718  00EA  0008               	return
  2719                           	opt stack 0
  2720                           GLOBAL	__end_of_Mode1
  2721  00EB                     	__end_of_Mode1:
  2722 ;; =============== function _Mode1 ends ============
  2723                           
  2724                           	signat	_Mode1,88
  2725                           	global	_Mode4
  2726                           psect	text659,local,class=CODE,delta=2
  2727                           global __ptext659
  2728  0CDD                     __ptext659:
  2729                           
  2730 ;; *************** function _Mode4 *****************
  2731 ;; Defined at:
  2732 ;;		line 158 in file "main.c"
  2733 ;; Parameters:    Size  Location     Type
  2734 ;;		None
  2735 ;; Auto vars:     Size  Location     Type
  2736 ;;		None
  2737 ;; Return value:  Size  Location     Type
  2738 ;;		None               void
  2739 ;; Registers used:
  2740 ;;		wreg, fsr0l, fsr0h, status,2, status,0, pclath
  2741 ;; Tracked objects:
  2742 ;;		On entry : 0/0
  2743 ;;		On exit  : 0/0
  2744 ;;		Unchanged: 0/0
  2745 ;; Data sizes:     COMMON   BANK0   BANK1   BANK2
  2746 ;;      Params:         0       0       0       0
  2747 ;;      Locals:         0       0       0       0
  2748 ;;      Temps:          0       0       3       0
  2749 ;;      Totals:         0       0       3       0
  2750 ;;Total ram usage:        3 bytes
  2751 ;; Hardware stack levels used:    1
  2752 ;; Hardware stack levels required when called:    5
  2753 ;; This function calls:
  2754 ;;		Nothing
  2755 ;; This function is called by:
  2756 ;;		_main
  2757 ;; This function uses a non-reentrant model
  2758 ;;
  2759                           psect	text659
  2760                           	file	"main.c"
  2761                           	line	158
  2762                           	global	__size_of_Mode4
  2763  0073                     	__size_of_Mode4	equ	__end_of_Mode4-_Mode4
  2764                           	
  2765  0CDD                     _Mode4:	
  2766                           	opt	stack 2
  2767                           ; Regs used in _Mode4: [wreg-fsr0h+status,2+status,0+pclath]
  2768                           	line	160
  2769                           	
  2770  0CDD                     l4647:	
  2771                           ;main.c: 160: PORTC=white0 | red1;
  2772  0CDD  3075               	movlw	(_red1-__stringbase)
  2773  0CDE  0084               	movwf	fsr0
  2774  0CDF  118A  274E  158A   	fcall	stringdir
  2775  0CE2  1683               	bsf	status, 5	;RP0=1, select bank1
  2776  0CE3  1303               	bcf	status, 6	;RP1=0, select bank1
  2777  0CE4  00A0               	movwf	(??_Mode4+0)^080h+0
  2778  0CE5  3079               	movlw	(_white0-__stringbase)
  2779  0CE6  0084               	movwf	fsr0
  2780  0CE7  118A  274E  158A   	fcall	stringdir
  2781  0CEA  0420               	iorwf	(??_Mode4+0)^080h+0,w
  2782  0CEB  1283               	bcf	status, 5	;RP0=0, select bank0
  2783  0CEC  1303               	bcf	status, 6	;RP1=0, select bank0
  2784  0CED  0087               	movwf	(7)	;volatile
  2785                           	line	161
  2786                           	
  2787  0CEE                     l4649:	
  2788                           ;main.c: 161: PORTB=white2;
  2789  0CEE  307D               	movlw	(_white2-__stringbase)
  2790  0CEF  0084               	movwf	fsr0
  2791  0CF0  118A  274E  158A   	fcall	stringdir
  2792  0CF3  0086               	movwf	(6)	;volatile
  2793                           	line	162
  2794                           	
  2795  0CF4                     l4651:	
  2796                           ;main.c: 162: _delay((unsigned long)((500)*(4000000/4000.0)));
  2797                           	opt asmopt_off
  2798  0CF4  3003               movlw  3
  2799  0CF5  1683               	bsf	status, 5	;RP0=1, select bank1
  2800  0CF6  1303               	bcf	status, 6	;RP1=0, select bank1
  2801  0CF7  00A2               movwf	((??_Mode4+0)^080h+0+2),f
  2802  0CF8  308A               movlw	138
  2803  0CF9  00A1               movwf	((??_Mode4+0)^080h+0+1),f
  2804  0CFA  3056               	movlw	86
  2805  0CFB  00A0               movwf	((??_Mode4+0)^080h+0),f
  2806  0CFC                     u3807:
  2807  0CFC  0BA0               	decfsz	((??_Mode4+0)^080h+0),f
  2808  0CFD  2CFC               	goto	u3807
  2809  0CFE  0BA1               	decfsz	((??_Mode4+0)^080h+0+1),f
  2810  0CFF  2CFC               	goto	u3807
  2811  0D00  0BA2               	decfsz	((??_Mode4+0)^080h+0+2),f
  2812  0D01  2CFC               	goto	u3807
  2813  0D02  2D03               	nop2
  2814                           opt asmopt_on
  2815                           
  2816                           	line	164
  2817                           	
  2818  0D03                     l4653:	
  2819                           ;main.c: 164: PORTC=red0 | green1;
  2820  0D03  3069               	movlw	(_green1-__stringbase)
  2821  0D04  0084               	movwf	fsr0
  2822  0D05  118A  274E  158A   	fcall	stringdir
  2823  0D08  1683               	bsf	status, 5	;RP0=1, select bank1
  2824  0D09  1303               	bcf	status, 6	;RP1=0, select bank1
  2825  0D0A  00A0               	movwf	(??_Mode4+0)^080h+0
  2826  0D0B  3073               	movlw	(_red0-__stringbase)
  2827  0D0C  0084               	movwf	fsr0
  2828  0D0D  118A  274E  158A   	fcall	stringdir
  2829  0D10  0420               	iorwf	(??_Mode4+0)^080h+0,w
  2830  0D11  1283               	bcf	status, 5	;RP0=0, select bank0
  2831  0D12  1303               	bcf	status, 6	;RP1=0, select bank0
  2832  0D13  0087               	movwf	(7)	;volatile
  2833                           	line	165
  2834                           	
  2835  0D14                     l4655:	
  2836                           ;main.c: 165: PORTB=red2;
  2837  0D14  3077               	movlw	(_red2-__stringbase)
  2838  0D15  0084               	movwf	fsr0
  2839  0D16  118A  274E  158A   	fcall	stringdir
  2840  0D19  0086               	movwf	(6)	;volatile
  2841                           	line	166
  2842                           ;main.c: 166: _delay((unsigned long)((500)*(4000000/4000.0)));
  2843                           	opt asmopt_off
  2844  0D1A  3003               movlw  3
  2845  0D1B  1683               	bsf	status, 5	;RP0=1, select bank1
  2846  0D1C  1303               	bcf	status, 6	;RP1=0, select bank1
  2847  0D1D  00A2               movwf	((??_Mode4+0)^080h+0+2),f
  2848  0D1E  308A               movlw	138
  2849  0D1F  00A1               movwf	((??_Mode4+0)^080h+0+1),f
  2850  0D20  3056               	movlw	86
  2851  0D21  00A0               movwf	((??_Mode4+0)^080h+0),f
  2852  0D22                     u3817:
  2853  0D22  0BA0               	decfsz	((??_Mode4+0)^080h+0),f
  2854  0D23  2D22               	goto	u3817
  2855  0D24  0BA1               	decfsz	((??_Mode4+0)^080h+0+1),f
  2856  0D25  2D22               	goto	u3817
  2857  0D26  0BA2               	decfsz	((??_Mode4+0)^080h+0+2),f
  2858  0D27  2D22               	goto	u3817
  2859  0D28  2D29               	nop2
  2860                           opt asmopt_on
  2861                           
  2862                           	line	168
  2863                           	
  2864  0D29                     l4657:	
  2865                           ;main.c: 168: PORTC=green0 | white1;
  2866  0D29  307B               	movlw	(_white1-__stringbase)
  2867  0D2A  0084               	movwf	fsr0
  2868  0D2B  118A  274E  158A   	fcall	stringdir
  2869  0D2E  1683               	bsf	status, 5	;RP0=1, select bank1
  2870  0D2F  1303               	bcf	status, 6	;RP1=0, select bank1
  2871  0D30  00A0               	movwf	(??_Mode4+0)^080h+0
  2872  0D31  3067               	movlw	(_green0-__stringbase)
  2873  0D32  0084               	movwf	fsr0
  2874  0D33  118A  274E  158A   	fcall	stringdir
  2875  0D36  0420               	iorwf	(??_Mode4+0)^080h+0,w
  2876  0D37  1283               	bcf	status, 5	;RP0=0, select bank0
  2877  0D38  1303               	bcf	status, 6	;RP1=0, select bank0
  2878  0D39  0087               	movwf	(7)	;volatile
  2879                           	line	169
  2880                           	
  2881  0D3A                     l4659:	
  2882                           ;main.c: 169: PORTB=green2;
  2883  0D3A  306B               	movlw	(_green2-__stringbase)
  2884  0D3B  0084               	movwf	fsr0
  2885  0D3C  118A  274E  158A   	fcall	stringdir
  2886  0D3F  0086               	movwf	(6)	;volatile
  2887                           	line	170
  2888                           	
  2889  0D40                     l4661:	
  2890                           ;main.c: 170: _delay((unsigned long)((500)*(4000000/4000.0)));
  2891                           	opt asmopt_off
  2892  0D40  3003               movlw  3
  2893  0D41  1683               	bsf	status, 5	;RP0=1, select bank1
  2894  0D42  1303               	bcf	status, 6	;RP1=0, select bank1
  2895  0D43  00A2               movwf	((??_Mode4+0)^080h+0+2),f
  2896  0D44  308A               movlw	138
  2897  0D45  00A1               movwf	((??_Mode4+0)^080h+0+1),f
  2898  0D46  3056               	movlw	86
  2899  0D47  00A0               movwf	((??_Mode4+0)^080h+0),f
  2900  0D48                     u3827:
  2901  0D48  0BA0               	decfsz	((??_Mode4+0)^080h+0),f
  2902  0D49  2D48               	goto	u3827
  2903  0D4A  0BA1               	decfsz	((??_Mode4+0)^080h+0+1),f
  2904  0D4B  2D48               	goto	u3827
  2905  0D4C  0BA2               	decfsz	((??_Mode4+0)^080h+0+2),f
  2906  0D4D  2D48               	goto	u3827
  2907  0D4E  2D4F               	nop2
  2908                           opt asmopt_on
  2909                           
  2910                           	line	171
  2911                           	
  2912  0D4F                     l794:	
  2913  0D4F  0008               	return
  2914                           	opt stack 0
  2915                           GLOBAL	__end_of_Mode4
  2916  0D50                     	__end_of_Mode4:
  2917 ;; =============== function _Mode4 ends ============
  2918                           
  2919                           	signat	_Mode4,88
  2920                           	global	_rand
  2921                           psect	text660,local,class=CODE,delta=2
  2922                           global __ptext660
  2923  0B46                     __ptext660:
  2924                           
  2925 ;; *************** function _rand *****************
  2926 ;; Defined at:
  2927 ;;		line 14 in file "C:\Program Files (x86)\HI-TECH Software\PICC\9.83\sources\rand.c"
  2928 ;; Parameters:    Size  Location     Type
  2929 ;;		None
  2930 ;; Auto vars:     Size  Location     Type
  2931 ;;		None
  2932 ;; Return value:  Size  Location     Type
  2933 ;;                  2   20[BANK1 ] int 
  2934 ;; Registers used:
  2935 ;;		wreg, status,2, status,0, pclath, cstack
  2936 ;; Tracked objects:
  2937 ;;		On entry : 0/0
  2938 ;;		On exit  : 0/0
  2939 ;;		Unchanged: 0/0
  2940 ;; Data sizes:     COMMON   BANK0   BANK1   BANK2
  2941 ;;      Params:         0       0       2       0
  2942 ;;      Locals:         0       0       0       0
  2943 ;;      Temps:          0       0       9       0
  2944 ;;      Totals:         0       0      11       0
  2945 ;;Total ram usage:       11 bytes
  2946 ;; Hardware stack levels used:    1
  2947 ;; Hardware stack levels required when called:    6
  2948 ;; This function calls:
  2949 ;;		_srand
  2950 ;;		___lmul
  2951 ;; This function is called by:
  2952 ;;		_Mode3
  2953 ;;		_Mode5
  2954 ;;		_Mode6
  2955 ;;		_main
  2956 ;; This function uses a non-reentrant model
  2957 ;;
  2958                           psect	text660
  2959                           	file	"C:\Program Files (x86)\HI-TECH Software\PICC\9.83\sources\rand.c"
  2960                           	line	14
  2961                           	global	__size_of_rand
  2962  0060                     	__size_of_rand	equ	__end_of_rand-_rand
  2963                           	
  2964  0B46                     _rand:	
  2965                           	opt	stack 0
  2966                           ; Regs used in _rand: [wreg+status,2+status,0+pclath+cstack]
  2967                           	line	15
  2968                           	
  2969  0B46                     l4641:	
  2970  0B46  1683               	bsf	status, 5	;RP0=1, select bank1
  2971  0B47  1303               	bcf	status, 6	;RP1=0, select bank1
  2972  0B48  08EF               	movf	(_randf)^080h,f
  2973  0B49  1D03               	skipz
  2974  0B4A  2B4C               	goto	u3651
  2975  0B4B  2B4D               	goto	u3650
  2976  0B4C                     u3651:
  2977  0B4C  2B54               	goto	l1697
  2978  0B4D                     u3650:
  2979                           	line	16
  2980                           	
  2981  0B4D                     l4643:	
  2982  0B4D  3001               	movlw	low(01h)
  2983  0B4E  00A0               	movwf	(?_srand)^080h
  2984  0B4F  3000               	movlw	high(01h)
  2985  0B50  00A1               	movwf	((?_srand)^080h)+1
  2986  0B51  158A  21F7  158A   	fcall	_srand
  2987                           	
  2988  0B54                     l1697:	
  2989                           	line	17
  2990  0B54  3039               	movlw	039h
  2991  0B55  1683               	bsf	status, 5	;RP0=1, select bank1
  2992  0B56  1303               	bcf	status, 6	;RP1=0, select bank1
  2993  0B57  00B6               	movwf	((??_rand+0)^080h+0)
  2994  0B58  3030               	movlw	030h
  2995  0B59  00B7               	movwf	((??_rand+0)^080h+0+1)
  2996  0B5A  3000               	movlw	0
  2997  0B5B  00B8               	movwf	((??_rand+0)^080h+0+2)
  2998  0B5C  3000               	movlw	0
  2999  0B5D  00B9               	movwf	((??_rand+0)^080h+0+3)
  3000  0B5E  086E               	movf	(_randx+3)^080h,w
  3001  0B5F  00A3               	movwf	(?___lmul+3)^080h
  3002  0B60  086D               	movf	(_randx+2)^080h,w
  3003  0B61  00A2               	movwf	(?___lmul+2)^080h
  3004  0B62  086C               	movf	(_randx+1)^080h,w
  3005  0B63  00A1               	movwf	(?___lmul+1)^080h
  3006  0B64  086B               	movf	(_randx)^080h,w
  3007  0B65  00A0               	movwf	(?___lmul)^080h
  3008                           
  3009  0B66  3041               	movlw	041h
  3010  0B67  00A7               	movwf	3+(?___lmul)^080h+04h
  3011  0B68  30C6               	movlw	0C6h
  3012  0B69  00A6               	movwf	2+(?___lmul)^080h+04h
  3013  0B6A  304E               	movlw	04Eh
  3014  0B6B  00A5               	movwf	1+(?___lmul)^080h+04h
  3015  0B6C  306D               	movlw	06Dh
  3016  0B6D  00A4               	movwf	0+(?___lmul)^080h+04h
  3017                           
  3018  0B6E  158A  22FA  158A   	fcall	___lmul
  3019  0B71  1683               	bsf	status, 5	;RP0=1, select bank1
  3020  0B72  1303               	bcf	status, 6	;RP1=0, select bank1
  3021  0B73  0820               	movf	(0+(?___lmul))^080h,w
  3022  0B74  07B6               	addwf	(??_rand+0)^080h+0,f
  3023  0B75  0821               	movf	(1+(?___lmul))^080h,w
  3024  0B76  1803               	skipnc
  3025  0B77  0F21               	incfsz	(1+(?___lmul))^080h,w
  3026  0B78  2B7A               	goto	u3660
  3027  0B79  2B7B               	goto	u3661
  3028  0B7A                     u3660:
  3029  0B7A  07B7               	addwf	(??_rand+0)^080h+1,f
  3030  0B7B                     u3661:
  3031  0B7B  0822               	movf	(2+(?___lmul))^080h,w
  3032  0B7C  1803               	skipnc
  3033  0B7D  0F22               	incfsz	(2+(?___lmul))^080h,w
  3034  0B7E  2B80               	goto	u3662
  3035  0B7F  2B81               	goto	u3663
  3036  0B80                     u3662:
  3037  0B80  07B8               	addwf	(??_rand+0)^080h+2,f
  3038  0B81                     u3663:
  3039  0B81  0823               	movf	(3+(?___lmul))^080h,w
  3040  0B82  1803               	skipnc
  3041  0B83  0A23               	incf	(3+(?___lmul))^080h,w
  3042  0B84  07B9               	addwf	(??_rand+0)^080h+3,f
  3043  0B85  0839               	movf	3+(??_rand+0)^080h+0,w
  3044  0B86  00EE               	movwf	(_randx+3)^080h
  3045  0B87  0838               	movf	2+(??_rand+0)^080h+0,w
  3046  0B88  00ED               	movwf	(_randx+2)^080h
  3047  0B89  0837               	movf	1+(??_rand+0)^080h+0,w
  3048  0B8A  00EC               	movwf	(_randx+1)^080h
  3049  0B8B  0836               	movf	0+(??_rand+0)^080h+0,w
  3050  0B8C  00EB               	movwf	(_randx)^080h
  3051                           
  3052  0B8D  086B               	movf	((_randx)^080h),w
  3053  0B8E  00BA               	movwf	(??_rand+4)^080h+0
  3054  0B8F  086C               	movf	((_randx+1)^080h),w
  3055  0B90  00BB               	movwf	((??_rand+4)^080h+0+1)
  3056  0B91  086D               	movf	((_randx+2)^080h),w
  3057  0B92  00BC               	movwf	((??_rand+4)^080h+0+2)
  3058  0B93  086E               	movf	((_randx+3)^080h),w
  3059  0B94  00BD               	movwf	((??_rand+4)^080h+0+3)
  3060  0B95  3010               	movlw	010h
  3061  0B96  00BE               	movwf	(??_rand+8)^080h+0
  3062  0B97                     u3675:
  3063  0B97  0D3D               	rlf	(??_rand+4)^080h+3,w
  3064  0B98  0CBD               	rrf	(??_rand+4)^080h+3,f
  3065  0B99  0CBC               	rrf	(??_rand+4)^080h+2,f
  3066  0B9A  0CBB               	rrf	(??_rand+4)^080h+1,f
  3067  0B9B  0CBA               	rrf	(??_rand+4)^080h+0,f
  3068  0B9C                     u3670:
  3069  0B9C  0BBE               	decfsz	(??_rand+8)^080h+0,f
  3070  0B9D  2B97               	goto	u3675
  3071  0B9E  30FF               	movlw	low(07FFFh)
  3072  0B9F  053A               	andwf	0+(??_rand+4)^080h+0,w
  3073  0BA0  00B4               	movwf	(?_rand)^080h
  3074  0BA1  307F               	movlw	high(07FFFh)
  3075  0BA2  053B               	andwf	1+(??_rand+4)^080h+0,w
  3076  0BA3  00B5               	movwf	1+(?_rand)^080h
  3077  0BA4  2BA5               	goto	l1698
  3078                           	
  3079  0BA5                     l4645:	
  3080                           	line	18
  3081                           	
  3082  0BA5                     l1698:	
  3083  0BA5  0008               	return
  3084                           	opt stack 0
  3085                           GLOBAL	__end_of_rand
  3086  0BA6                     	__end_of_rand:
  3087 ;; =============== function _rand ends ============
  3088                           
  3089                           	signat	_rand,90
  3090                           	global	_ChangeLED
  3091                           psect	text661,local,class=CODE,delta=2
  3092                           global __ptext661
  3093  0503                     __ptext661:
  3094                           
  3095 ;; *************** function _ChangeLED *****************
  3096 ;; Defined at:
  3097 ;;		line 72 in file "main.c"
  3098 ;; Parameters:    Size  Location     Type
  3099 ;;  port            1    wreg     PTR volatile unsigned ch
  3100 ;;		 -> PORTC(1), 
  3101 ;;  port2           1   31[BANK1 ] PTR volatile unsigned ch
  3102 ;;		 -> PORTB(1), 
  3103 ;;  outColor        2   32[BANK1 ] int 
  3104 ;;  inColor         2   34[BANK1 ] int 
  3105 ;;  outColor2       2   36[BANK1 ] int 
  3106 ;;  inColor2        2   38[BANK1 ] int 
  3107 ;;  outColor3       2   40[BANK1 ] int 
  3108 ;;  inColor3        2   42[BANK1 ] int 
  3109 ;;  loopLimit       2   44[BANK1 ] int 
  3110 ;; Auto vars:     Size  Location     Type
  3111 ;;  port            1   56[BANK1 ] PTR volatile unsigned ch
  3112 ;;		 -> PORTC(1), 
  3113 ;;  i               2   54[BANK1 ] int 
  3114 ;;  i               2   52[BANK1 ] int 
  3115 ;;  j               2   50[BANK1 ] int 
  3116 ;;  k               2   57[BANK1 ] int 
  3117 ;; Return value:  Size  Location     Type
  3118 ;;		None               void
  3119 ;; Registers used:
  3120 ;;		wreg, fsr0l, fsr0h, status,2, status,0, btemp+1, pclath
  3121 ;; Tracked objects:
  3122 ;;		On entry : 0/0
  3123 ;;		On exit  : 0/0
  3124 ;;		Unchanged: 0/0
  3125 ;; Data sizes:     COMMON   BANK0   BANK1   BANK2
  3126 ;;      Params:         0       0      15       0
  3127 ;;      Locals:         0       0       9       0
  3128 ;;      Temps:          0       0       4       0
  3129 ;;      Totals:         0       0      28       0
  3130 ;;Total ram usage:       28 bytes
  3131 ;; Hardware stack levels used:    1
  3132 ;; Hardware stack levels required when called:    5
  3133 ;; This function calls:
  3134 ;;		Nothing
  3135 ;; This function is called by:
  3136 ;;		_Mode1
  3137 ;;		_Mode3
  3138 ;;		_Mode5
  3139 ;;		_Mode6
  3140 ;; This function uses a non-reentrant model
  3141 ;;
  3142                           psect	text661
  3143                           	file	"main.c"
  3144                           	line	72
  3145                           	global	__size_of_ChangeLED
  3146  00C5                     	__size_of_ChangeLED	equ	__end_of_ChangeLED-_ChangeLED
  3147                           	
  3148  0503                     _ChangeLED:	
  3149                           	opt	stack 1
  3150                           ; Regs used in _ChangeLED: [wreg-fsr0h+status,2+status,0+btemp+1+pclath]
  3151                           ;ChangeLED@port stored from wreg
  3152                           	line	75
  3153  0503  1683               	bsf	status, 5	;RP0=1, select bank1
  3154  0504  1303               	bcf	status, 6	;RP1=0, select bank1
  3155  0505  00D8               	movwf	(ChangeLED@port)^080h
  3156                           	
  3157  0506                     l4607:	
  3158                           ;main.c: 75: for(int k = 0; k < 21; k++)
  3159  0506  01D9               	clrf	(ChangeLED@k)^080h
  3160  0507  01DA               	clrf	(ChangeLED@k+1)^080h
  3161                           	
  3162  0508                     l4609:	
  3163  0508  085A               	movf	(ChangeLED@k+1)^080h,w
  3164  0509  3A80               	xorlw	80h
  3165  050A  00FF               	movwf	btemp+1
  3166  050B  3080               	movlw	(high(015h))^80h
  3167  050C  027F               	subwf	btemp+1,w
  3168  050D  1D03               	skipz
  3169  050E  2D11               	goto	u3605
  3170  050F  3015               	movlw	low(015h)
  3171  0510  0259               	subwf	(ChangeLED@k)^080h,w
  3172  0511                     u3605:
  3173                           
  3174  0511  1C03               	skipc
  3175  0512  2D14               	goto	u3601
  3176  0513  2D15               	goto	u3600
  3177  0514                     u3601:
  3178  0514  2D17               	goto	l4613
  3179  0515                     u3600:
  3180  0515  2DC7               	goto	l778
  3181                           	
  3182  0516                     l4611:	
  3183  0516  2DC7               	goto	l778
  3184                           	line	76
  3185                           	
  3186  0517                     l767:	
  3187                           	line	78
  3188                           	
  3189  0517                     l4613:	
  3190                           ;main.c: 76: {
  3191                           ;main.c: 78: for(int j = 0; j < loopLimit; j++)
  3192  0517  1683               	bsf	status, 5	;RP0=1, select bank1
  3193  0518  1303               	bcf	status, 6	;RP1=0, select bank1
  3194  0519  01D2               	clrf	(ChangeLED@j)^080h
  3195  051A  01D3               	clrf	(ChangeLED@j+1)^080h
  3196  051B  2DA2               	goto	l769
  3197                           	line	79
  3198                           	
  3199  051C                     l770:	
  3200                           	line	80
  3201                           	
  3202  051C                     l4615:	
  3203                           ;main.c: 79: {
  3204                           ;main.c: 80: *port = outColor | outColor2;
  3205  051C  1683               	bsf	status, 5	;RP0=1, select bank1
  3206  051D  1303               	bcf	status, 6	;RP1=0, select bank1
  3207  051E  0840               	movf	(ChangeLED@outColor)^080h,w
  3208  051F  0444               	iorwf	(ChangeLED@outColor2)^080h,w
  3209  0520  00CE               	movwf	(??_ChangeLED+0)^080h+0
  3210  0521  0858               	movf	(ChangeLED@port)^080h,w
  3211  0522  0084               	movwf	fsr0
  3212  0523  084E               	movf	(??_ChangeLED+0)^080h+0,w
  3213  0524  1383               	bcf	status, 7	;select IRP bank0
  3214  0525  0080               	movwf	indf
  3215                           	line	81
  3216                           	
  3217  0526                     l4617:	
  3218                           ;main.c: 81: *port2 = outColor3;
  3219  0526  0848               	movf	(ChangeLED@outColor3)^080h,w
  3220  0527  00CE               	movwf	(??_ChangeLED+0)^080h+0
  3221  0528  083F               	movf	(ChangeLED@port2)^080h,w
  3222  0529  0084               	movwf	fsr0
  3223  052A  084E               	movf	(??_ChangeLED+0)^080h+0,w
  3224  052B  0080               	movwf	indf
  3225                           	line	84
  3226                           	
  3227  052C                     l4619:	
  3228                           ;main.c: 84: for(int i = 0; i < (timesArray[20-k]); i++)
  3229  052C  01D4               	clrf	(ChangeLED@i)^080h
  3230  052D  01D5               	clrf	(ChangeLED@i+1)^080h
  3231  052E  2D3E               	goto	l4623
  3232                           	line	85
  3233                           	
  3234  052F                     l772:	
  3235                           	line	86
  3236                           	
  3237  052F                     l4621:	
  3238                           ;main.c: 85: {
  3239                           ;main.c: 86: _delay((unsigned long)((10)*(4000000/4000000.0)));
  3240                           	opt asmopt_off
  3241  052F  3003               movlw	3
  3242  0530  1683               	bsf	status, 5	;RP0=1, select bank1
  3243  0531  1303               	bcf	status, 6	;RP1=0, select bank1
  3244  0532  00CE               movwf	(??_ChangeLED+0)^080h+0,f
  3245  0533                     u3837:
  3246  0533  0BCE               decfsz	(??_ChangeLED+0)^080h+0,f
  3247  0534  2D33               	goto	u3837
  3248                           opt asmopt_on
  3249                           
  3250                           	line	84
  3251  0535  3001               	movlw	low(01h)
  3252  0536  1683               	bsf	status, 5	;RP0=1, select bank1
  3253  0537  1303               	bcf	status, 6	;RP1=0, select bank1
  3254  0538  07D4               	addwf	(ChangeLED@i)^080h,f
  3255  0539  1803               	skipnc
  3256  053A  0AD5               	incf	(ChangeLED@i+1)^080h,f
  3257  053B  3000               	movlw	high(01h)
  3258  053C  07D5               	addwf	(ChangeLED@i+1)^080h,f
  3259  053D  2D3E               	goto	l4623
  3260                           	
  3261  053E                     l771:	
  3262                           	
  3263  053E                     l4623:	
  3264  053E  0359               	decf	(ChangeLED@k)^080h,w
  3265  053F  3AFF               	xorlw	0ffh
  3266  0540  00CE               	movwf	(??_ChangeLED+0)^080h+0
  3267  0541  074E               	addwf	(??_ChangeLED+0)^080h+0,w
  3268  0542  3E28               	addlw	028h
  3269  0543  3E01               	addlw	low((_timesArray-__stringbase))
  3270  0544  0084               	movwf	fsr0
  3271  0545  118A  274E  118A   	fcall	stringdir
  3272  0548  00CF               	movwf	(??_ChangeLED+1)^080h+0
  3273  0549  118A  274E  118A   	fcall	stringdir
  3274  054C  00D0               	movwf	(??_ChangeLED+1)^080h+0+1
  3275  054D  0855               	movf	(ChangeLED@i+1)^080h,w
  3276  054E  3A80               	xorlw	80h
  3277  054F  00D1               	movwf	(??_ChangeLED+3)^080h+0
  3278  0550  0850               	movf	1+(??_ChangeLED+1)^080h+0,w
  3279  0551  3A80               	xorlw	80h
  3280  0552  0251               	subwf	(??_ChangeLED+3)^080h+0,w
  3281  0553  1D03               	skipz
  3282  0554  2D57               	goto	u3615
  3283  0555  084F               	movf	0+(??_ChangeLED+1)^080h+0,w
  3284  0556  0254               	subwf	(ChangeLED@i)^080h,w
  3285  0557                     u3615:
  3286                           
  3287  0557  1C03               	skipc
  3288  0558  2D5A               	goto	u3611
  3289  0559  2D5B               	goto	u3610
  3290  055A                     u3611:
  3291  055A  2D2F               	goto	l4621
  3292  055B                     u3610:
  3293  055B  2D5C               	goto	l4625
  3294                           	
  3295  055C                     l773:	
  3296                           	line	89
  3297                           	
  3298  055C                     l4625:	
  3299                           ;main.c: 87: }
  3300                           ;main.c: 89: *port = inColor | inColor2;
  3301  055C  1683               	bsf	status, 5	;RP0=1, select bank1
  3302  055D  1303               	bcf	status, 6	;RP1=0, select bank1
  3303  055E  0842               	movf	(ChangeLED@inColor)^080h,w
  3304  055F  0446               	iorwf	(ChangeLED@inColor2)^080h,w
  3305  0560  00CE               	movwf	(??_ChangeLED+0)^080h+0
  3306  0561  0858               	movf	(ChangeLED@port)^080h,w
  3307  0562  0084               	movwf	fsr0
  3308  0563  084E               	movf	(??_ChangeLED+0)^080h+0,w
  3309  0564  1383               	bcf	status, 7	;select IRP bank0
  3310  0565  0080               	movwf	indf
  3311                           	line	90
  3312                           	
  3313  0566                     l4627:	
  3314                           ;main.c: 90: *port2 = inColor3;
  3315  0566  084A               	movf	(ChangeLED@inColor3)^080h,w
  3316  0567  00CE               	movwf	(??_ChangeLED+0)^080h+0
  3317  0568  083F               	movf	(ChangeLED@port2)^080h,w
  3318  0569  0084               	movwf	fsr0
  3319  056A  084E               	movf	(??_ChangeLED+0)^080h+0,w
  3320  056B  0080               	movwf	indf
  3321                           	line	92
  3322                           	
  3323  056C                     l4629:	
  3324                           ;main.c: 92: for(int i = 0; i < (timesArray[k]); i++)
  3325  056C  01D6               	clrf	(ChangeLED@i_424)^080h
  3326  056D  01D7               	clrf	(ChangeLED@i_424+1)^080h
  3327  056E  2D7E               	goto	l4633
  3328                           	line	93
  3329                           	
  3330  056F                     l775:	
  3331                           	line	94
  3332                           	
  3333  056F                     l4631:	
  3334                           ;main.c: 93: {
  3335                           ;main.c: 94: _delay((unsigned long)((10)*(4000000/4000000.0)));
  3336                           	opt asmopt_off
  3337  056F  3003               movlw	3
  3338  0570  1683               	bsf	status, 5	;RP0=1, select bank1
  3339  0571  1303               	bcf	status, 6	;RP1=0, select bank1
  3340  0572  00CE               movwf	(??_ChangeLED+0)^080h+0,f
  3341  0573                     u3847:
  3342  0573  0BCE               decfsz	(??_ChangeLED+0)^080h+0,f
  3343  0574  2D73               	goto	u3847
  3344                           opt asmopt_on
  3345                           
  3346                           	line	92
  3347  0575  3001               	movlw	low(01h)
  3348  0576  1683               	bsf	status, 5	;RP0=1, select bank1
  3349  0577  1303               	bcf	status, 6	;RP1=0, select bank1
  3350  0578  07D6               	addwf	(ChangeLED@i_424)^080h,f
  3351  0579  1803               	skipnc
  3352  057A  0AD7               	incf	(ChangeLED@i_424+1)^080h,f
  3353  057B  3000               	movlw	high(01h)
  3354  057C  07D7               	addwf	(ChangeLED@i_424+1)^080h,f
  3355  057D  2D7E               	goto	l4633
  3356                           	
  3357  057E                     l774:	
  3358                           	
  3359  057E                     l4633:	
  3360  057E  0859               	movf	(ChangeLED@k)^080h,w
  3361  057F  00CE               	movwf	(??_ChangeLED+0)^080h+0
  3362  0580  074E               	addwf	(??_ChangeLED+0)^080h+0,w
  3363  0581  3E01               	addlw	low((_timesArray-__stringbase))
  3364  0582  0084               	movwf	fsr0
  3365  0583  118A  274E  118A   	fcall	stringdir
  3366  0586  00CF               	movwf	(??_ChangeLED+1)^080h+0
  3367  0587  118A  274E  118A   	fcall	stringdir
  3368  058A  00D0               	movwf	(??_ChangeLED+1)^080h+0+1
  3369  058B  0857               	movf	(ChangeLED@i_424+1)^080h,w
  3370  058C  3A80               	xorlw	80h
  3371  058D  00D1               	movwf	(??_ChangeLED+3)^080h+0
  3372  058E  0850               	movf	1+(??_ChangeLED+1)^080h+0,w
  3373  058F  3A80               	xorlw	80h
  3374  0590  0251               	subwf	(??_ChangeLED+3)^080h+0,w
  3375  0591  1D03               	skipz
  3376  0592  2D95               	goto	u3625
  3377  0593  084F               	movf	0+(??_ChangeLED+1)^080h+0,w
  3378  0594  0256               	subwf	(ChangeLED@i_424)^080h,w
  3379  0595                     u3625:
  3380                           
  3381  0595  1C03               	skipc
  3382  0596  2D98               	goto	u3621
  3383  0597  2D99               	goto	u3620
  3384  0598                     u3621:
  3385  0598  2D6F               	goto	l4631
  3386  0599                     u3620:
  3387  0599  2D9A               	goto	l4635
  3388                           	
  3389  059A                     l776:	
  3390                           	line	78
  3391                           	
  3392  059A                     l4635:	
  3393  059A  3001               	movlw	low(01h)
  3394  059B  1683               	bsf	status, 5	;RP0=1, select bank1
  3395  059C  1303               	bcf	status, 6	;RP1=0, select bank1
  3396  059D  07D2               	addwf	(ChangeLED@j)^080h,f
  3397  059E  1803               	skipnc
  3398  059F  0AD3               	incf	(ChangeLED@j+1)^080h,f
  3399  05A0  3000               	movlw	high(01h)
  3400  05A1  07D3               	addwf	(ChangeLED@j+1)^080h,f
  3401                           	
  3402  05A2                     l769:	
  3403  05A2  0853               	movf	(ChangeLED@j+1)^080h,w
  3404  05A3  3A80               	xorlw	80h
  3405  05A4  00CE               	movwf	(??_ChangeLED+0)^080h+0
  3406  05A5  084D               	movf	(ChangeLED@loopLimit+1)^080h,w
  3407  05A6  3A80               	xorlw	80h
  3408  05A7  024E               	subwf	(??_ChangeLED+0)^080h+0,w
  3409  05A8  1D03               	skipz
  3410  05A9  2DAC               	goto	u3635
  3411  05AA  084C               	movf	(ChangeLED@loopLimit)^080h,w
  3412  05AB  0252               	subwf	(ChangeLED@j)^080h,w
  3413  05AC                     u3635:
  3414                           
  3415  05AC  1C03               	skipc
  3416  05AD  2DAF               	goto	u3631
  3417  05AE  2DB0               	goto	u3630
  3418  05AF                     u3631:
  3419  05AF  2D1C               	goto	l4615
  3420  05B0                     u3630:
  3421  05B0  2DB1               	goto	l4637
  3422                           	
  3423  05B1                     l777:	
  3424                           	line	75
  3425                           	
  3426  05B1                     l4637:	
  3427  05B1  3001               	movlw	low(01h)
  3428  05B2  1683               	bsf	status, 5	;RP0=1, select bank1
  3429  05B3  1303               	bcf	status, 6	;RP1=0, select bank1
  3430  05B4  07D9               	addwf	(ChangeLED@k)^080h,f
  3431  05B5  1803               	skipnc
  3432  05B6  0ADA               	incf	(ChangeLED@k+1)^080h,f
  3433  05B7  3000               	movlw	high(01h)
  3434  05B8  07DA               	addwf	(ChangeLED@k+1)^080h,f
  3435                           	
  3436  05B9                     l4639:	
  3437  05B9  085A               	movf	(ChangeLED@k+1)^080h,w
  3438  05BA  3A80               	xorlw	80h
  3439  05BB  00FF               	movwf	btemp+1
  3440  05BC  3080               	movlw	(high(015h))^80h
  3441  05BD  027F               	subwf	btemp+1,w
  3442  05BE  1D03               	skipz
  3443  05BF  2DC2               	goto	u3645
  3444  05C0  3015               	movlw	low(015h)
  3445  05C1  0259               	subwf	(ChangeLED@k)^080h,w
  3446  05C2                     u3645:
  3447                           
  3448  05C2  1C03               	skipc
  3449  05C3  2DC5               	goto	u3641
  3450  05C4  2DC6               	goto	u3640
  3451  05C5                     u3641:
  3452  05C5  2D17               	goto	l4613
  3453  05C6                     u3640:
  3454  05C6  2DC7               	goto	l778
  3455                           	
  3456  05C7                     l768:	
  3457                           	line	99
  3458                           	
  3459  05C7                     l778:	
  3460  05C7  0008               	return
  3461                           	opt stack 0
  3462                           GLOBAL	__end_of_ChangeLED
  3463  05C8                     	__end_of_ChangeLED:
  3464 ;; =============== function _ChangeLED ends ============
  3465                           
  3466                           	signat	_ChangeLED,36984
  3467                           	global	___awmod
  3468                           psect	text662,local,class=CODE,delta=2
  3469                           global __ptext662
  3470  0C75                     __ptext662:
  3471                           
  3472 ;; *************** function ___awmod *****************
  3473 ;; Defined at:
  3474 ;;		line 5 in file "C:\Program Files (x86)\HI-TECH Software\PICC\9.83\sources\awmod.c"
  3475 ;; Parameters:    Size  Location     Type
  3476 ;;  divisor         2   13[BANK1 ] int 
  3477 ;;  dividend        2   15[BANK1 ] int 
  3478 ;; Auto vars:     Size  Location     Type
  3479 ;;  sign            1   19[BANK1 ] unsigned char 
  3480 ;;  counter         1   18[BANK1 ] unsigned char 
  3481 ;; Return value:  Size  Location     Type
  3482 ;;                  2   13[BANK1 ] int 
  3483 ;; Registers used:
  3484 ;;		wreg, status,2, status,0
  3485 ;; Tracked objects:
  3486 ;;		On entry : 0/0
  3487 ;;		On exit  : 0/0
  3488 ;;		Unchanged: 0/0
  3489 ;; Data sizes:     COMMON   BANK0   BANK1   BANK2
  3490 ;;      Params:         0       0       4       0
  3491 ;;      Locals:         0       0       2       0
  3492 ;;      Temps:          0       0       1       0
  3493 ;;      Totals:         0       0       7       0
  3494 ;;Total ram usage:        7 bytes
  3495 ;; Hardware stack levels used:    1
  3496 ;; Hardware stack levels required when called:    5
  3497 ;; This function calls:
  3498 ;;		Nothing
  3499 ;; This function is called by:
  3500 ;;		_Mode3
  3501 ;;		_Mode5
  3502 ;;		_Mode6
  3503 ;;		_main
  3504 ;; This function uses a non-reentrant model
  3505 ;;
  3506                           psect	text662
  3507                           	file	"C:\Program Files (x86)\HI-TECH Software\PICC\9.83\sources\awmod.c"
  3508                           	line	5
  3509                           	global	__size_of___awmod
  3510  0068                     	__size_of___awmod	equ	__end_of___awmod-___awmod
  3511                           	
  3512  0C75                     ___awmod:	
  3513                           	opt	stack 1
  3514                           ; Regs used in ___awmod: [wreg+status,2+status,0]
  3515                           	line	8
  3516                           	
  3517  0C75                     l4371:	
  3518  0C75  1683               	bsf	status, 5	;RP0=1, select bank1
  3519  0C76  1303               	bcf	status, 6	;RP1=0, select bank1
  3520  0C77  01B3               	clrf	(___awmod@sign)^080h
  3521                           	line	9
  3522  0C78  1FB0               	btfss	(___awmod@dividend+1)^080h,7
  3523  0C79  2C7B               	goto	u3181
  3524  0C7A  2C7C               	goto	u3180
  3525  0C7B                     u3181:
  3526  0C7B  2C85               	goto	l4375
  3527  0C7C                     u3180:
  3528                           	line	10
  3529                           	
  3530  0C7C                     l4373:	
  3531  0C7C  09AF               	comf	(___awmod@dividend)^080h,f
  3532  0C7D  09B0               	comf	(___awmod@dividend+1)^080h,f
  3533  0C7E  0AAF               	incf	(___awmod@dividend)^080h,f
  3534  0C7F  1903               	skipnz
  3535  0C80  0AB0               	incf	(___awmod@dividend+1)^080h,f
  3536                           	line	11
  3537  0C81  01B3               	clrf	(___awmod@sign)^080h
  3538  0C82  1403               	bsf	status,0
  3539  0C83  0DB3               	rlf	(___awmod@sign)^080h,f
  3540  0C84  2C85               	goto	l4375
  3541                           	line	12
  3542                           	
  3543  0C85                     l1915:	
  3544                           	line	13
  3545                           	
  3546  0C85                     l4375:	
  3547  0C85  1FAE               	btfss	(___awmod@divisor+1)^080h,7
  3548  0C86  2C88               	goto	u3191
  3549  0C87  2C89               	goto	u3190
  3550  0C88                     u3191:
  3551  0C88  2C8F               	goto	l4379
  3552  0C89                     u3190:
  3553                           	line	14
  3554                           	
  3555  0C89                     l4377:	
  3556  0C89  09AD               	comf	(___awmod@divisor)^080h,f
  3557  0C8A  09AE               	comf	(___awmod@divisor+1)^080h,f
  3558  0C8B  0AAD               	incf	(___awmod@divisor)^080h,f
  3559  0C8C  1903               	skipnz
  3560  0C8D  0AAE               	incf	(___awmod@divisor+1)^080h,f
  3561  0C8E  2C8F               	goto	l4379
  3562                           	
  3563  0C8F                     l1916:	
  3564                           	line	15
  3565                           	
  3566  0C8F                     l4379:	
  3567  0C8F  082E               	movf	(___awmod@divisor+1)^080h,w
  3568  0C90  042D               	iorwf	(___awmod@divisor)^080h,w
  3569  0C91  1903               	skipnz
  3570  0C92  2C94               	goto	u3201
  3571  0C93  2C95               	goto	u3200
  3572  0C94                     u3201:
  3573  0C94  2CCB               	goto	l4397
  3574  0C95                     u3200:
  3575                           	line	16
  3576                           	
  3577  0C95                     l4381:	
  3578  0C95  01B2               	clrf	(___awmod@counter)^080h
  3579  0C96  1403               	bsf	status,0
  3580  0C97  0DB2               	rlf	(___awmod@counter)^080h,f
  3581                           	line	17
  3582  0C98  2CA5               	goto	l4387
  3583                           	
  3584  0C99                     l1919:	
  3585                           	line	18
  3586                           	
  3587  0C99                     l4383:	
  3588  0C99  3001               	movlw	01h
  3589                           	
  3590  0C9A                     u3215:
  3591  0C9A  1003               	clrc
  3592  0C9B  0DAD               	rlf	(___awmod@divisor)^080h,f
  3593  0C9C  0DAE               	rlf	(___awmod@divisor+1)^080h,f
  3594  0C9D  3EFF               	addlw	-1
  3595  0C9E  1D03               	skipz
  3596  0C9F  2C9A               	goto	u3215
  3597                           	line	19
  3598                           	
  3599  0CA0                     l4385:	
  3600  0CA0  3001               	movlw	(01h)
  3601  0CA1  00B1               	movwf	(??___awmod+0)^080h+0
  3602  0CA2  0831               	movf	(??___awmod+0)^080h+0,w
  3603  0CA3  07B2               	addwf	(___awmod@counter)^080h,f
  3604  0CA4  2CA5               	goto	l4387
  3605                           	line	20
  3606                           	
  3607  0CA5                     l1918:	
  3608                           	line	17
  3609                           	
  3610  0CA5                     l4387:	
  3611  0CA5  1FAE               	btfss	(___awmod@divisor+1)^080h,(15)&7
  3612  0CA6  2CA8               	goto	u3221
  3613  0CA7  2CA9               	goto	u3220
  3614  0CA8                     u3221:
  3615  0CA8  2C99               	goto	l4383
  3616  0CA9                     u3220:
  3617  0CA9  2CAB               	goto	l4389
  3618                           	
  3619  0CAA                     l1920:	
  3620  0CAA  2CAB               	goto	l4389
  3621                           	line	21
  3622                           	
  3623  0CAB                     l1921:	
  3624                           	line	22
  3625                           	
  3626  0CAB                     l4389:	
  3627  0CAB  082E               	movf	(___awmod@divisor+1)^080h,w
  3628  0CAC  0230               	subwf	(___awmod@dividend+1)^080h,w
  3629  0CAD  1D03               	skipz
  3630  0CAE  2CB1               	goto	u3235
  3631  0CAF  082D               	movf	(___awmod@divisor)^080h,w
  3632  0CB0  022F               	subwf	(___awmod@dividend)^080h,w
  3633  0CB1                     u3235:
  3634  0CB1  1C03               	skipc
  3635  0CB2  2CB4               	goto	u3231
  3636  0CB3  2CB5               	goto	u3230
  3637  0CB4                     u3231:
  3638  0CB4  2CBC               	goto	l4393
  3639  0CB5                     u3230:
  3640                           	line	23
  3641                           	
  3642  0CB5                     l4391:	
  3643  0CB5  082D               	movf	(___awmod@divisor)^080h,w
  3644  0CB6  02AF               	subwf	(___awmod@dividend)^080h,f
  3645  0CB7  082E               	movf	(___awmod@divisor+1)^080h,w
  3646  0CB8  1C03               	skipc
  3647  0CB9  03B0               	decf	(___awmod@dividend+1)^080h,f
  3648  0CBA  02B0               	subwf	(___awmod@dividend+1)^080h,f
  3649  0CBB  2CBC               	goto	l4393
  3650                           	
  3651  0CBC                     l1922:	
  3652                           	line	24
  3653                           	
  3654  0CBC                     l4393:	
  3655  0CBC  3001               	movlw	01h
  3656                           	
  3657  0CBD                     u3245:
  3658  0CBD  1003               	clrc
  3659  0CBE  0CAE               	rrf	(___awmod@divisor+1)^080h,f
  3660  0CBF  0CAD               	rrf	(___awmod@divisor)^080h,f
  3661  0CC0  3EFF               	addlw	-1
  3662  0CC1  1D03               	skipz
  3663  0CC2  2CBD               	goto	u3245
  3664                           	line	25
  3665                           	
  3666  0CC3                     l4395:	
  3667  0CC3  3001               	movlw	low(01h)
  3668  0CC4  02B2               	subwf	(___awmod@counter)^080h,f
  3669  0CC5  1D03               	btfss	status,2
  3670  0CC6  2CC8               	goto	u3251
  3671  0CC7  2CC9               	goto	u3250
  3672  0CC8                     u3251:
  3673  0CC8  2CAB               	goto	l4389
  3674  0CC9                     u3250:
  3675  0CC9  2CCB               	goto	l4397
  3676                           	
  3677  0CCA                     l1923:	
  3678  0CCA  2CCB               	goto	l4397
  3679                           	line	26
  3680                           	
  3681  0CCB                     l1917:	
  3682                           	line	27
  3683                           	
  3684  0CCB                     l4397:	
  3685  0CCB  0833               	movf	(___awmod@sign)^080h,w
  3686  0CCC  1D03               	skipz
  3687  0CCD  2CCF               	goto	u3260
  3688  0CCE  2CD5               	goto	l4401
  3689  0CCF                     u3260:
  3690                           	line	28
  3691                           	
  3692  0CCF                     l4399:	
  3693  0CCF  09AF               	comf	(___awmod@dividend)^080h,f
  3694  0CD0  09B0               	comf	(___awmod@dividend+1)^080h,f
  3695  0CD1  0AAF               	incf	(___awmod@dividend)^080h,f
  3696  0CD2  1903               	skipnz
  3697  0CD3  0AB0               	incf	(___awmod@dividend+1)^080h,f
  3698  0CD4  2CD5               	goto	l4401
  3699                           	
  3700  0CD5                     l1924:	
  3701                           	line	29
  3702                           	
  3703  0CD5                     l4401:	
  3704  0CD5  0830               	movf	(___awmod@dividend+1)^080h,w
  3705  0CD6  01AE               	clrf	(?___awmod+1)^080h
  3706  0CD7  07AE               	addwf	(?___awmod+1)^080h
  3707  0CD8  082F               	movf	(___awmod@dividend)^080h,w
  3708  0CD9  01AD               	clrf	(?___awmod)^080h
  3709  0CDA  07AD               	addwf	(?___awmod)^080h
  3710                           
  3711  0CDB  2CDC               	goto	l1925
  3712                           	
  3713  0CDC                     l4403:	
  3714                           	line	30
  3715                           	
  3716  0CDC                     l1925:	
  3717  0CDC  0008               	return
  3718                           	opt stack 0
  3719                           GLOBAL	__end_of___awmod
  3720  0CDD                     	__end_of___awmod:
  3721 ;; =============== function ___awmod ends ============
  3722                           
  3723                           	signat	___awmod,8314
  3724                           	global	___lmul
  3725                           psect	text663,local,class=CODE,delta=2
  3726                           global __ptext663
  3727  0AFA                     __ptext663:
  3728                           
  3729 ;; *************** function ___lmul *****************
  3730 ;; Defined at:
  3731 ;;		line 3 in file "C:\Program Files (x86)\HI-TECH Software\PICC\9.83\sources\lmul.c"
  3732 ;; Parameters:    Size  Location     Type
  3733 ;;  multiplier      4    0[BANK1 ] unsigned long 
  3734 ;;  multiplicand    4    4[BANK1 ] unsigned long 
  3735 ;; Auto vars:     Size  Location     Type
  3736 ;;  product         4    9[BANK1 ] unsigned long 
  3737 ;; Return value:  Size  Location     Type
  3738 ;;                  4    0[BANK1 ] unsigned long 
  3739 ;; Registers used:
  3740 ;;		wreg, status,2, status,0
  3741 ;; Tracked objects:
  3742 ;;		On entry : 0/0
  3743 ;;		On exit  : 0/0
  3744 ;;		Unchanged: 0/0
  3745 ;; Data sizes:     COMMON   BANK0   BANK1   BANK2
  3746 ;;      Params:         0       0       8       0
  3747 ;;      Locals:         0       0       4       0
  3748 ;;      Temps:          0       0       1       0
  3749 ;;      Totals:         0       0      13       0
  3750 ;;Total ram usage:       13 bytes
  3751 ;; Hardware stack levels used:    1
  3752 ;; Hardware stack levels required when called:    5
  3753 ;; This function calls:
  3754 ;;		Nothing
  3755 ;; This function is called by:
  3756 ;;		_rand
  3757 ;; This function uses a non-reentrant model
  3758 ;;
  3759                           psect	text663
  3760                           	file	"C:\Program Files (x86)\HI-TECH Software\PICC\9.83\sources\lmul.c"
  3761                           	line	3
  3762                           	global	__size_of___lmul
  3763  004C                     	__size_of___lmul	equ	__end_of___lmul-___lmul
  3764                           	
  3765  0AFA                     ___lmul:	
  3766                           	opt	stack 0
  3767                           ; Regs used in ___lmul: [wreg+status,2+status,0]
  3768                           	line	4
  3769                           	
  3770  0AFA                     l4357:	
  3771  0AFA  3000               	movlw	0
  3772  0AFB  1683               	bsf	status, 5	;RP0=1, select bank1
  3773  0AFC  1303               	bcf	status, 6	;RP1=0, select bank1
  3774  0AFD  00AC               	movwf	(___lmul@product+3)^080h
  3775  0AFE  3000               	movlw	0
  3776  0AFF  00AB               	movwf	(___lmul@product+2)^080h
  3777  0B00  3000               	movlw	0
  3778  0B01  00AA               	movwf	(___lmul@product+1)^080h
  3779  0B02  3000               	movlw	0
  3780  0B03  00A9               	movwf	(___lmul@product)^080h
  3781                           
  3782  0B04  2B05               	goto	l4359
  3783                           	line	6
  3784                           	
  3785  0B05                     l1782:	
  3786                           	line	7
  3787                           	
  3788  0B05                     l4359:	
  3789  0B05  1C20               	btfss	(___lmul@multiplier)^080h,(0)&7
  3790  0B06  2B08               	goto	u3131
  3791  0B07  2B09               	goto	u3130
  3792  0B08                     u3131:
  3793  0B08  2B21               	goto	l4363
  3794  0B09                     u3130:
  3795                           	line	8
  3796                           	
  3797  0B09                     l4361:	
  3798  0B09  0824               	movf	(___lmul@multiplicand)^080h,w
  3799  0B0A  07A9               	addwf	(___lmul@product)^080h,f
  3800  0B0B  0825               	movf	(___lmul@multiplicand+1)^080h,w
  3801  0B0C  1103               	clrz
  3802  0B0D  1803               	skipnc
  3803  0B0E  3E01               	addlw	1
  3804  0B0F  1903               	skipnz
  3805  0B10  2B12               	goto	u3141
  3806  0B11  07AA               	addwf	(___lmul@product+1)^080h,f
  3807  0B12                     u3141:
  3808  0B12  0826               	movf	(___lmul@multiplicand+2)^080h,w
  3809  0B13  1103               	clrz
  3810  0B14  1803               	skipnc
  3811  0B15  3E01               	addlw	1
  3812  0B16  1903               	skipnz
  3813  0B17  2B19               	goto	u3142
  3814  0B18  07AB               	addwf	(___lmul@product+2)^080h,f
  3815  0B19                     u3142:
  3816  0B19  0827               	movf	(___lmul@multiplicand+3)^080h,w
  3817  0B1A  1103               	clrz
  3818  0B1B  1803               	skipnc
  3819  0B1C  3E01               	addlw	1
  3820  0B1D  1903               	skipnz
  3821  0B1E  2B20               	goto	u3143
  3822  0B1F  07AC               	addwf	(___lmul@product+3)^080h,f
  3823  0B20                     u3143:
  3824                           
  3825  0B20  2B21               	goto	l4363
  3826                           	
  3827  0B21                     l1783:	
  3828                           	line	9
  3829                           	
  3830  0B21                     l4363:	
  3831  0B21  3001               	movlw	01h
  3832  0B22  00A8               	movwf	(??___lmul+0)^080h+0
  3833  0B23                     u3155:
  3834  0B23  1003               	clrc
  3835  0B24  0DA4               	rlf	(___lmul@multiplicand)^080h,f
  3836  0B25  0DA5               	rlf	(___lmul@multiplicand+1)^080h,f
  3837  0B26  0DA6               	rlf	(___lmul@multiplicand+2)^080h,f
  3838  0B27  0DA7               	rlf	(___lmul@multiplicand+3)^080h,f
  3839  0B28  0BA8               	decfsz	(??___lmul+0)^080h+0
  3840  0B29  2B23               	goto	u3155
  3841                           	line	10
  3842                           	
  3843  0B2A                     l4365:	
  3844  0B2A  3001               	movlw	01h
  3845  0B2B                     u3165:
  3846  0B2B  1003               	clrc
  3847  0B2C  0CA3               	rrf	(___lmul@multiplier+3)^080h,f
  3848  0B2D  0CA2               	rrf	(___lmul@multiplier+2)^080h,f
  3849  0B2E  0CA1               	rrf	(___lmul@multiplier+1)^080h,f
  3850  0B2F  0CA0               	rrf	(___lmul@multiplier)^080h,f
  3851  0B30  3EFF               	addlw	-1
  3852  0B31  1D03               	skipz
  3853  0B32  2B2B               	goto	u3165
  3854                           
  3855                           	line	11
  3856  0B33  0823               	movf	(___lmul@multiplier+3)^080h,w
  3857  0B34  0422               	iorwf	(___lmul@multiplier+2)^080h,w
  3858  0B35  0421               	iorwf	(___lmul@multiplier+1)^080h,w
  3859  0B36  0420               	iorwf	(___lmul@multiplier)^080h,w
  3860  0B37  1D03               	skipz
  3861  0B38  2B3A               	goto	u3171
  3862  0B39  2B3B               	goto	u3170
  3863  0B3A                     u3171:
  3864  0B3A  2B05               	goto	l4359
  3865  0B3B                     u3170:
  3866  0B3B  2B3C               	goto	l4367
  3867                           	
  3868  0B3C                     l1784:	
  3869                           	line	12
  3870                           	
  3871  0B3C                     l4367:	
  3872  0B3C  082C               	movf	(___lmul@product+3)^080h,w
  3873  0B3D  00A3               	movwf	(?___lmul+3)^080h
  3874  0B3E  082B               	movf	(___lmul@product+2)^080h,w
  3875  0B3F  00A2               	movwf	(?___lmul+2)^080h
  3876  0B40  082A               	movf	(___lmul@product+1)^080h,w
  3877  0B41  00A1               	movwf	(?___lmul+1)^080h
  3878  0B42  0829               	movf	(___lmul@product)^080h,w
  3879  0B43  00A0               	movwf	(?___lmul)^080h
  3880                           
  3881  0B44  2B45               	goto	l1785
  3882                           	
  3883  0B45                     l4369:	
  3884                           	line	13
  3885                           	
  3886  0B45                     l1785:	
  3887  0B45  0008               	return
  3888                           	opt stack 0
  3889                           GLOBAL	__end_of___lmul
  3890  0B46                     	__end_of___lmul:
  3891 ;; =============== function ___lmul ends ============
  3892                           
  3893                           	signat	___lmul,8316
  3894                           	global	_srand
  3895                           psect	text664,local,class=CODE,delta=2
  3896                           global __ptext664
  3897  09F7                     __ptext664:
  3898                           
  3899 ;; *************** function _srand *****************
  3900 ;; Defined at:
  3901 ;;		line 8 in file "C:\Program Files (x86)\HI-TECH Software\PICC\9.83\sources\rand.c"
  3902 ;; Parameters:    Size  Location     Type
  3903 ;;  x               2    0[BANK1 ] unsigned int 
  3904 ;; Auto vars:     Size  Location     Type
  3905 ;;		None
  3906 ;; Return value:  Size  Location     Type
  3907 ;;		None               void
  3908 ;; Registers used:
  3909 ;;		wreg, status,2, status,0
  3910 ;; Tracked objects:
  3911 ;;		On entry : 0/0
  3912 ;;		On exit  : 0/0
  3913 ;;		Unchanged: 0/0
  3914 ;; Data sizes:     COMMON   BANK0   BANK1   BANK2
  3915 ;;      Params:         0       0       2       0
  3916 ;;      Locals:         0       0       0       0
  3917 ;;      Temps:          0       0       0       0
  3918 ;;      Totals:         0       0       2       0
  3919 ;;Total ram usage:        2 bytes
  3920 ;; Hardware stack levels used:    1
  3921 ;; Hardware stack levels required when called:    5
  3922 ;; This function calls:
  3923 ;;		Nothing
  3924 ;; This function is called by:
  3925 ;;		_rand
  3926 ;; This function uses a non-reentrant model
  3927 ;;
  3928                           psect	text664
  3929                           	file	"C:\Program Files (x86)\HI-TECH Software\PICC\9.83\sources\rand.c"
  3930                           	line	8
  3931                           	global	__size_of_srand
  3932  000C                     	__size_of_srand	equ	__end_of_srand-_srand
  3933                           	
  3934  09F7                     _srand:	
  3935                           	opt	stack 0
  3936                           ; Regs used in _srand: [wreg+status,2+status,0]
  3937                           	line	9
  3938                           	
  3939  09F7                     l4353:	
  3940  09F7  1683               	bsf	status, 5	;RP0=1, select bank1
  3941  09F8  1303               	bcf	status, 6	;RP1=0, select bank1
  3942  09F9  0820               	movf	(srand@x)^080h,w
  3943  09FA  00EB               	movwf	(_randx)^080h
  3944  09FB  0821               	movf	(srand@x+1)^080h,w
  3945  09FC  00EC               	movwf	((_randx)^080h)+1
  3946  09FD  01ED               	clrf	2+((_randx)^080h)
  3947  09FE  01EE               	clrf	3+((_randx)^080h)
  3948                           	line	10
  3949                           	
  3950  09FF                     l4355:	
  3951  09FF  01EF               	clrf	(_randf)^080h
  3952  0A00  1403               	bsf	status,0
  3953  0A01  0DEF               	rlf	(_randf)^080h,f
  3954                           	line	11
  3955                           	
  3956  0A02                     l1694:	
  3957  0A02  0008               	return
  3958                           	opt stack 0
  3959                           GLOBAL	__end_of_srand
  3960  0A03                     	__end_of_srand:
  3961 ;; =============== function _srand ends ============
  3962                           
  3963                           	signat	_srand,4216
  3964                           	global	_init
  3965                           psect	text665,local,class=CODE,delta=2
  3966                           global __ptext665
  3967  0A25                     __ptext665:
  3968                           
  3969 ;; *************** function _init *****************
  3970 ;; Defined at:
  3971 ;;		line 215 in file "main.c"
  3972 ;; Parameters:    Size  Location     Type
  3973 ;;		None
  3974 ;; Auto vars:     Size  Location     Type
  3975 ;;		None
  3976 ;; Return value:  Size  Location     Type
  3977 ;;                  2  810[COMMON] int 
  3978 ;; Registers used:
  3979 ;;		wreg, status,2
  3980 ;; Tracked objects:
  3981 ;;		On entry : 0/0
  3982 ;;		On exit  : 0/0
  3983 ;;		Unchanged: 0/0
  3984 ;; Data sizes:     COMMON   BANK0   BANK1   BANK2
  3985 ;;      Params:         0       0       0       0
  3986 ;;      Locals:         0       0       0       0
  3987 ;;      Temps:          0       0       0       0
  3988 ;;      Totals:         0       0       0       0
  3989 ;;Total ram usage:        0 bytes
  3990 ;; Hardware stack levels used:    1
  3991 ;; Hardware stack levels required when called:    5
  3992 ;; This function calls:
  3993 ;;		Nothing
  3994 ;; This function is called by:
  3995 ;;		_main
  3996 ;; This function uses a non-reentrant model
  3997 ;;
  3998                           psect	text665
  3999                           	file	"main.c"
  4000                           	line	215
  4001                           	global	__size_of_init
  4002  0016                     	__size_of_init	equ	__end_of_init-_init
  4003                           	
  4004  0A25                     _init:	
  4005                           	opt	stack 2
  4006                           ; Regs used in _init: [wreg+status,2]
  4007                           	line	217
  4008                           	
  4009  0A25                     l4333:	
  4010                           ;main.c: 217: CM1CON0=0 ;
  4011  0A25  1283               	bcf	status, 5	;RP0=0, select bank2
  4012  0A26  1703               	bsf	status, 6	;RP1=1, select bank2
  4013  0A27  0199               	clrf	(281)^0100h	;volatile
  4014                           	line	218
  4015                           ;main.c: 218: CM2CON0=0 ;
  4016  0A28  019A               	clrf	(282)^0100h	;volatile
  4017                           	line	219
  4018                           ;main.c: 219: ANSEL = 0;
  4019  0A29  019E               	clrf	(286)^0100h	;volatile
  4020                           	line	220
  4021                           ;main.c: 220: ANSELH = 0 ;
  4022  0A2A  019F               	clrf	(287)^0100h	;volatile
  4023                           	line	221
  4024                           ;main.c: 221: OPTION=0b00000000;
  4025  0A2B  1683               	bsf	status, 5	;RP0=1, select bank1
  4026  0A2C  1303               	bcf	status, 6	;RP1=0, select bank1
  4027  0A2D  0181               	clrf	(129)^080h	;volatile
  4028                           	line	222
  4029                           	
  4030  0A2E                     l4335:	
  4031                           ;main.c: 222: GIE = 1;
  4032  0A2E  178B               	bsf	(95/8),(95)&7
  4033                           	line	223
  4034                           	
  4035  0A2F                     l4337:	
  4036                           ;main.c: 223: PEIE = 1;
  4037  0A2F  170B               	bsf	(94/8),(94)&7
  4038                           	line	224
  4039                           	
  4040  0A30                     l4339:	
  4041                           ;main.c: 224: INTE = 1;
  4042  0A30  160B               	bsf	(92/8),(92)&7
  4043                           	line	226
  4044                           	
  4045  0A31                     l4341:	
  4046                           ;main.c: 226: TRISA=0b00000100;
  4047  0A31  3004               	movlw	(04h)
  4048  0A32  0085               	movwf	(133)^080h	;volatile
  4049                           	line	227
  4050                           	
  4051  0A33                     l4343:	
  4052                           ;main.c: 227: TRISB=0;
  4053  0A33  0186               	clrf	(134)^080h	;volatile
  4054                           	line	228
  4055                           	
  4056  0A34                     l4345:	
  4057                           ;main.c: 228: TRISC=0;
  4058  0A34  0187               	clrf	(135)^080h	;volatile
  4059                           	line	229
  4060                           	
  4061  0A35                     l4347:	
  4062                           ;main.c: 229: PORTA=0;
  4063  0A35  1283               	bcf	status, 5	;RP0=0, select bank0
  4064  0A36  1303               	bcf	status, 6	;RP1=0, select bank0
  4065  0A37  0185               	clrf	(5)	;volatile
  4066                           	line	230
  4067                           	
  4068  0A38                     l4349:	
  4069                           ;main.c: 230: PORTB=0;
  4070  0A38  0186               	clrf	(6)	;volatile
  4071                           	line	231
  4072                           	
  4073  0A39                     l4351:	
  4074                           ;main.c: 231: PORTC=0;
  4075  0A39  0187               	clrf	(7)	;volatile
  4076                           	line	232
  4077                           	
  4078  0A3A                     l811:	
  4079  0A3A  0008               	return
  4080                           	opt stack 0
  4081                           GLOBAL	__end_of_init
  4082  0A3B                     	__end_of_init:
  4083 ;; =============== function _init ends ============
  4084                           
  4085                           	signat	_init,90
  4086                           	global	_Mode2
  4087                           psect	text666,local,class=CODE,delta=2
  4088                           global __ptext666
  4089  0A3B                     __ptext666:
  4090                           
  4091 ;; *************** function _Mode2 *****************
  4092 ;; Defined at:
  4093 ;;		line 126 in file "main.c"
  4094 ;; Parameters:    Size  Location     Type
  4095 ;;		None
  4096 ;; Auto vars:     Size  Location     Type
  4097 ;;		None
  4098 ;; Return value:  Size  Location     Type
  4099 ;;		None               void
  4100 ;; Registers used:
  4101 ;;		wreg, fsr0l, fsr0h, status,2, status,0, pclath
  4102 ;; Tracked objects:
  4103 ;;		On entry : 0/0
  4104 ;;		On exit  : 0/0
  4105 ;;		Unchanged: 0/0
  4106 ;; Data sizes:     COMMON   BANK0   BANK1   BANK2
  4107 ;;      Params:         0       0       0       0
  4108 ;;      Locals:         0       0       0       0
  4109 ;;      Temps:          0       0       3       0
  4110 ;;      Totals:         0       0       3       0
  4111 ;;Total ram usage:        3 bytes
  4112 ;; Hardware stack levels used:    1
  4113 ;; Hardware stack levels required when called:    5
  4114 ;; This function calls:
  4115 ;;		Nothing
  4116 ;; This function is called by:
  4117 ;;		_main
  4118 ;; This function uses a non-reentrant model
  4119 ;;
  4120                           psect	text666
  4121                           	file	"main.c"
  4122                           	line	126
  4123                           	global	__size_of_Mode2
  4124  002E                     	__size_of_Mode2	equ	__end_of_Mode2-_Mode2
  4125                           	
  4126  0A3B                     _Mode2:	
  4127                           	opt	stack 2
  4128                           ; Regs used in _Mode2: [wreg-fsr0h+status,2+status,0+pclath]
  4129                           	line	128
  4130                           	
  4131  0A3B                     l4311:	
  4132                           ;main.c: 128: PORTC=(led0Colors[i1-1]) | (led1Colors[i1-1]);
  4133  0A3B  1283               	bcf	status, 5	;RP0=0, select bank0
  4134  0A3C  1303               	bcf	status, 6	;RP1=0, select bank0
  4135  0A3D  0863               	movf	(_i1),w	;volatile
  4136  0A3E  1683               	bsf	status, 5	;RP0=1, select bank1
  4137  0A3F  1303               	bcf	status, 6	;RP1=0, select bank1
  4138  0A40  00A0               	movwf	(??_Mode2+0)^080h+0
  4139  0A41  0720               	addwf	(??_Mode2+0)^080h+0,w
  4140  0A42  3EFE               	addlw	0FEh
  4141  0A43  3E3B               	addlw	low((_led1Colors-__stringbase))
  4142  0A44  0084               	movwf	fsr0
  4143  0A45  118A  274E  158A   	fcall	stringdir
  4144  0A48  00A1               	movwf	(??_Mode2+1)^080h+0
  4145  0A49  1283               	bcf	status, 5	;RP0=0, select bank0
  4146  0A4A  1303               	bcf	status, 6	;RP1=0, select bank0
  4147  0A4B  0863               	movf	(_i1),w	;volatile
  4148  0A4C  1683               	bsf	status, 5	;RP0=1, select bank1
  4149  0A4D  1303               	bcf	status, 6	;RP1=0, select bank1
  4150  0A4E  00A2               	movwf	(??_Mode2+2)^080h+0
  4151  0A4F  0722               	addwf	(??_Mode2+2)^080h+0,w
  4152  0A50  3EFE               	addlw	0FEh
  4153  0A51  3E2B               	addlw	low((_led0Colors-__stringbase))
  4154  0A52  0084               	movwf	fsr0
  4155  0A53  118A  274E  158A   	fcall	stringdir
  4156  0A56  0421               	iorwf	(??_Mode2+1)^080h+0,w
  4157  0A57  1283               	bcf	status, 5	;RP0=0, select bank0
  4158  0A58  1303               	bcf	status, 6	;RP1=0, select bank0
  4159  0A59  0087               	movwf	(7)	;volatile
  4160                           	line	129
  4161                           ;main.c: 129: PORTB=led2Colors[i1-1];
  4162  0A5A  0863               	movf	(_i1),w	;volatile
  4163  0A5B  1683               	bsf	status, 5	;RP0=1, select bank1
  4164  0A5C  1303               	bcf	status, 6	;RP1=0, select bank1
  4165  0A5D  00A0               	movwf	(??_Mode2+0)^080h+0
  4166  0A5E  0720               	addwf	(??_Mode2+0)^080h+0,w
  4167  0A5F  3EFE               	addlw	0FEh
  4168  0A60  3E4B               	addlw	low((_led2Colors-__stringbase))
  4169  0A61  0084               	movwf	fsr0
  4170  0A62  118A  274E  158A   	fcall	stringdir
  4171  0A65  1283               	bcf	status, 5	;RP0=0, select bank0
  4172  0A66  1303               	bcf	status, 6	;RP1=0, select bank0
  4173  0A67  0086               	movwf	(6)	;volatile
  4174                           	line	130
  4175                           	
  4176  0A68                     l788:	
  4177  0A68  0008               	return
  4178                           	opt stack 0
  4179                           GLOBAL	__end_of_Mode2
  4180  0A69                     	__end_of_Mode2:
  4181 ;; =============== function _Mode2 ends ============
  4182                           
  4183                           	signat	_Mode2,88
  4184                           	global	_ISR
  4185                           psect	text667,local,class=CODE,delta=2
  4186                           global __ptext667
  4187  0A69                     __ptext667:
  4188                           
  4189 ;; *************** function _ISR *****************
  4190 ;; Defined at:
  4191 ;;		line 192 in file "main.c"
  4192 ;; Parameters:    Size  Location     Type
  4193 ;;		None
  4194 ;; Auto vars:     Size  Location     Type
  4195 ;;		None
  4196 ;; Return value:  Size  Location     Type
  4197 ;;		None               void
  4198 ;; Registers used:
  4199 ;;		wreg, fsr0l, fsr0h, status,2, status,0, btemp+1, pclath, cstack
  4200 ;; Tracked objects:
  4201 ;;		On entry : 0/0
  4202 ;;		On exit  : 0/0
  4203 ;;		Unchanged: 0/0
  4204 ;; Data sizes:     COMMON   BANK0   BANK1   BANK2
  4205 ;;      Params:         0       0       0       0
  4206 ;;      Locals:         0       0       0       0
  4207 ;;      Temps:          0       6       0       0
  4208 ;;      Totals:         0       6       0       0
  4209 ;;Total ram usage:        6 bytes
  4210 ;; Hardware stack levels used:    1
  4211 ;; Hardware stack levels required when called:    4
  4212 ;; This function calls:
  4213 ;;		i1_main
  4214 ;; This function is called by:
  4215 ;;		Interrupt level 1
  4216 ;; This function uses a non-reentrant model
  4217 ;;
  4218                           psect	text667
  4219                           	file	"main.c"
  4220                           	line	192
  4221                           	global	__size_of_ISR
  4222  0047                     	__size_of_ISR	equ	__end_of_ISR-_ISR
  4223                           	
  4224  0A69                     _ISR:	
  4225                           	opt	stack 0
  4226                           ; Regs used in _ISR: [wreg-fsr0h+status,2+status,0+btemp+1+pclath+cstack]
  4227                           psect	intentry,class=CODE,delta=2
  4228                           global __pintentry
  4229  0004                     __pintentry:
  4230                           global interrupt_function
  4231  0004                     interrupt_function:
  4232                           	global saved_w
  4233  007E                     	saved_w	set	btemp+0
  4234  0004  00FE               	movwf	saved_w
  4235  0005  0E03               	swapf	status,w
  4236  0006  1283               	bcf	status, 5	;RP0=0, select bank0
  4237  0007  1303               	bcf	status, 6	;RP1=0, select bank0
  4238  0008  00DF               	movwf	(??_ISR+2)
  4239  0009  0804               	movf	fsr0,w
  4240  000A  00E0               	movwf	(??_ISR+3)
  4241  000B  080A               	movf	pclath,w
  4242  000C  00E1               	movwf	(??_ISR+4)
  4243  000D  087F               	movf	btemp+1,w
  4244  000E  00E2               	movwf	(??_ISR+5)
  4245  000F  158A  2A69         	ljmp	_ISR
  4246                           psect	text667
  4247                           	line	194
  4248                           	
  4249  0A69                     i1l4313:	
  4250                           ;main.c: 194: if(INTF==1)
  4251  0A69  1C8B               	btfss	(89/8),(89)&7
  4252  0A6A  2A6C               	goto	u310_21
  4253  0A6B  2A6D               	goto	u310_20
  4254  0A6C                     u310_21:
  4255  0A6C  2AA3               	goto	i1l808
  4256  0A6D                     u310_20:
  4257                           	line	196
  4258                           	
  4259  0A6D                     i1l4315:	
  4260                           ;main.c: 195: {
  4261                           ;main.c: 196: PORTC=0;
  4262  0A6D  0187               	clrf	(7)	;volatile
  4263                           	line	197
  4264                           ;main.c: 197: PORTB=0;
  4265  0A6E  0186               	clrf	(6)	;volatile
  4266                           	line	198
  4267                           	
  4268  0A6F                     i1l4317:	
  4269                           ;main.c: 198: i1 = i1 + 1;
  4270  0A6F  0863               	movf	(_i1),w	;volatile
  4271  0A70  3E01               	addlw	low(01h)
  4272  0A71  00E3               	movwf	(_i1)	;volatile
  4273  0A72  0864               	movf	(_i1+1),w	;volatile
  4274  0A73  1803               	skipnc
  4275  0A74  3E01               	addlw	1
  4276  0A75  3E00               	addlw	high(01h)
  4277  0A76  00E4               	movwf	1+(_i1)	;volatile
  4278                           	line	199
  4279                           	
  4280  0A77                     i1l4319:	
  4281                           ;main.c: 199: if (i1==12)
  4282  0A77  300C               	movlw	0Ch
  4283  0A78  0663               	xorwf	(_i1),w	;volatile
  4284  0A79  0464               	iorwf	(_i1+1),w	;volatile
  4285  0A7A  1D03               	skipz
  4286  0A7B  2A7D               	goto	u311_21
  4287  0A7C  2A7E               	goto	u311_20
  4288  0A7D                     u311_21:
  4289  0A7D  2A81               	goto	i1l4323
  4290  0A7E                     u311_20:
  4291                           	line	201
  4292                           	
  4293  0A7E                     i1l4321:	
  4294                           ;main.c: 200: {
  4295                           ;main.c: 201: i1=0;
  4296  0A7E  01E3               	clrf	(_i1)	;volatile
  4297  0A7F  01E4               	clrf	(_i1+1)	;volatile
  4298  0A80  2A81               	goto	i1l4323
  4299                           	line	202
  4300                           	
  4301  0A81                     i1l804:	
  4302                           	line	203
  4303                           	
  4304  0A81                     i1l4323:	
  4305                           ;main.c: 202: }
  4306                           ;main.c: 203: _delay((unsigned long)((100)*(4000000/4000.0)));
  4307                           	opt asmopt_off
  4308  0A81  3082               movlw	130
  4309  0A82  00DE               movwf	((??_ISR+0)+0+1),f
  4310  0A83  30DD               	movlw	221
  4311  0A84  00DD               movwf	((??_ISR+0)+0),f
  4312  0A85                     u385_27:
  4313  0A85  0BDD               	decfsz	((??_ISR+0)+0),f
  4314  0A86  2A85               	goto	u385_27
  4315  0A87  0BDE               	decfsz	((??_ISR+0)+0+1),f
  4316  0A88  2A85               	goto	u385_27
  4317  0A89  2A8A               	nop2
  4318                           opt asmopt_on
  4319                           
  4320                           	line	204
  4321                           	
  4322  0A8A                     i1l4325:	
  4323                           ;main.c: 204: PORTA;
  4324  0A8A  1283               	bcf	status, 5	;RP0=0, select bank0
  4325  0A8B  1303               	bcf	status, 6	;RP1=0, select bank0
  4326  0A8C  0805               	movf	(5),w	;volatile
  4327                           	line	205
  4328                           ;main.c: 205: while(RA2==0)
  4329  0A8D  2A98               	goto	i1l4329
  4330                           	
  4331  0A8E                     i1l806:	
  4332                           	line	207
  4333                           	
  4334  0A8E                     i1l4327:	
  4335                           ;main.c: 206: {
  4336                           ;main.c: 207: _delay((unsigned long)((100)*(4000000/4000.0)));
  4337                           	opt asmopt_off
  4338  0A8E  3082               movlw	130
  4339  0A8F  00DE               movwf	((??_ISR+0)+0+1),f
  4340  0A90  30DD               	movlw	221
  4341  0A91  00DD               movwf	((??_ISR+0)+0),f
  4342  0A92                     u386_27:
  4343  0A92  0BDD               	decfsz	((??_ISR+0)+0),f
  4344  0A93  2A92               	goto	u386_27
  4345  0A94  0BDE               	decfsz	((??_ISR+0)+0+1),f
  4346  0A95  2A92               	goto	u386_27
  4347  0A96  2A97               	nop2
  4348                           opt asmopt_on
  4349                           
  4350  0A97  2A98               	goto	i1l4329
  4351                           	line	208
  4352                           	
  4353  0A98                     i1l805:	
  4354                           	line	205
  4355                           	
  4356  0A98                     i1l4329:	
  4357  0A98  1283               	bcf	status, 5	;RP0=0, select bank0
  4358  0A99  1303               	bcf	status, 6	;RP1=0, select bank0
  4359  0A9A  1D05               	btfss	(42/8),(42)&7
  4360  0A9B  2A9D               	goto	u312_21
  4361  0A9C  2A9E               	goto	u312_20
  4362  0A9D                     u312_21:
  4363  0A9D  2A8E               	goto	i1l4327
  4364  0A9E                     u312_20:
  4365                           	
  4366  0A9E                     i1l807:	
  4367                           	line	209
  4368                           ;main.c: 208: }
  4369                           ;main.c: 209: INTF = 0;
  4370  0A9E  108B               	bcf	(89/8),(89)&7
  4371                           	line	210
  4372                           	
  4373  0A9F                     i1l4331:	
  4374                           ;main.c: 210: main();
  4375  0A9F  158A  25CE  158A   	fcall	i1_main
  4376  0AA2  2AA3               	goto	i1l808
  4377                           	line	211
  4378                           	
  4379  0AA3                     i1l803:	
  4380                           	line	212
  4381                           	
  4382  0AA3                     i1l808:	
  4383  0AA3  1283               	bcf	status, 5	;RP0=0, select bank0
  4384  0AA4  1303               	bcf	status, 6	;RP1=0, select bank0
  4385  0AA5  0862               	movf	(??_ISR+5),w
  4386  0AA6  00FF               	movwf	btemp+1
  4387  0AA7  0861               	movf	(??_ISR+4),w
  4388  0AA8  008A               	movwf	pclath
  4389  0AA9  0860               	movf	(??_ISR+3),w
  4390  0AAA  0084               	movwf	fsr0
  4391  0AAB  0E5F               	swapf	(??_ISR+2)^00h,w
  4392  0AAC  0083               	movwf	status
  4393  0AAD  0EFE               	swapf	saved_w,f
  4394  0AAE  0E7E               	swapf	saved_w,w
  4395  0AAF  0009               	retfie
  4396                           	opt stack 0
  4397                           GLOBAL	__end_of_ISR
  4398  0AB0                     	__end_of_ISR:
  4399 ;; =============== function _ISR ends ============
  4400                           
  4401                           	signat	_ISR,88
  4402                           	global	i1_main
  4403                           psect	text668,local,class=CODE,delta=2
  4404                           global __ptext668
  4405  0DCE                     __ptext668:
  4406                           
  4407 ;; *************** function i1_main *****************
  4408 ;; Defined at:
  4409 ;;		line 235 in file "main.c"
  4410 ;; Parameters:    Size  Location     Type
  4411 ;;		None
  4412 ;; Auto vars:     Size  Location     Type
  4413 ;;  main            2   59[BANK0 ] int 
  4414 ;;  main            2   57[BANK0 ] int 
  4415 ;; Return value:  Size  Location     Type
  4416 ;;                  2    0[COMMON] int 
  4417 ;; Registers used:
  4418 ;;		wreg, fsr0l, fsr0h, status,2, status,0, btemp+1, pclath, cstack
  4419 ;; Tracked objects:
  4420 ;;		On entry : 0/0
  4421 ;;		On exit  : 0/0
  4422 ;;		Unchanged: 0/0
  4423 ;; Data sizes:     COMMON   BANK0   BANK1   BANK2
  4424 ;;      Params:         0       0       0       0
  4425 ;;      Locals:         0       4       0       0
  4426 ;;      Temps:          0       1       0       0
  4427 ;;      Totals:         0       5       0       0
  4428 ;;Total ram usage:        5 bytes
  4429 ;; Hardware stack levels used:    1
  4430 ;; Hardware stack levels required when called:    3
  4431 ;; This function calls:
  4432 ;;		i1_init
  4433 ;;		i1_Mode1
  4434 ;;		i1_Mode2
  4435 ;;		i1_rand
  4436 ;;		i1___awmod
  4437 ;;		i1_Mode3
  4438 ;;		i1_Mode4
  4439 ;;		i1_Mode5
  4440 ;;		i1_Mode6
  4441 ;; This function is called by:
  4442 ;;		_ISR
  4443 ;; This function uses a non-reentrant model
  4444 ;;
  4445                           psect	text668
  4446                           	file	"main.c"
  4447                           	line	235
  4448                           	global	__size_ofi1_main
  4449  00B7                     	__size_ofi1_main	equ	__end_ofi1_main-i1_main
  4450                           	
  4451  0DCE                     i1_main:	
  4452 ;; using string table level
  4453                           	opt	stack 1
  4454                           ; Regs used in i1_main: [wreg-fsr0h+status,2+status,0+btemp+1+pclath+cstack]
  4455                           	line	237
  4456                           	
  4457  0DCE                     i1l4519:	
  4458                           ;main.c: 237: init();
  4459  0DCE  158A  220F  158A   	fcall	i1_init
  4460  0DD1  2DD7               	goto	i1l4523
  4461                           	line	240
  4462                           ;main.c: 240: while (1)
  4463                           	
  4464  0DD2                     i1l814:	
  4465                           	line	242
  4466                           ;main.c: 241: {
  4467                           ;main.c: 242: while (i1==0)
  4468  0DD2  2DD7               	goto	i1l4523
  4469                           	
  4470  0DD3                     i1l816:	
  4471                           	line	245
  4472                           	
  4473  0DD3                     i1l4521:	
  4474                           ;main.c: 243: {
  4475                           ;main.c: 245: Mode1();
  4476  0DD3  118A  2295  158A   	fcall	i1_Mode1
  4477  0DD6  2DD7               	goto	i1l4523
  4478                           	line	246
  4479                           	
  4480  0DD7                     i1l815:	
  4481                           	line	242
  4482                           	
  4483  0DD7                     i1l4523:	
  4484  0DD7  1283               	bcf	status, 5	;RP0=0, select bank0
  4485  0DD8  1303               	bcf	status, 6	;RP1=0, select bank0
  4486  0DD9  0864               	movf	(_i1+1),w	;volatile
  4487  0DDA  0463               	iorwf	(_i1),w	;volatile
  4488  0DDB  1903               	skipnz
  4489  0DDC  2DDE               	goto	u336_21
  4490  0DDD  2DDF               	goto	u336_20
  4491  0DDE                     u336_21:
  4492  0DDE  2DD3               	goto	i1l4521
  4493  0DDF                     u336_20:
  4494  0DDF  2DE5               	goto	i1l4527
  4495                           	
  4496  0DE0                     i1l817:	
  4497                           	line	247
  4498                           ;main.c: 246: }
  4499                           ;main.c: 247: while (i1>=1 && i1<=7)
  4500  0DE0  2DE5               	goto	i1l4527
  4501                           	
  4502  0DE1                     i1l819:	
  4503                           	line	250
  4504                           	
  4505  0DE1                     i1l4525:	
  4506                           ;main.c: 248: {
  4507                           ;main.c: 250: Mode2();
  4508  0DE1  118A  27D8  158A   	fcall	i1_Mode2
  4509  0DE4  2DE5               	goto	i1l4527
  4510                           	line	251
  4511                           	
  4512  0DE5                     i1l818:	
  4513                           	line	247
  4514                           	
  4515  0DE5                     i1l4527:	
  4516  0DE5  1283               	bcf	status, 5	;RP0=0, select bank0
  4517  0DE6  1303               	bcf	status, 6	;RP1=0, select bank0
  4518  0DE7  0864               	movf	(_i1+1),w	;volatile
  4519  0DE8  0463               	iorwf	(_i1),w	;volatile
  4520  0DE9  1903               	skipnz
  4521  0DEA  2DEC               	goto	u337_21
  4522  0DEB  2DED               	goto	u337_20
  4523  0DEC                     u337_21:
  4524  0DEC  2E4B               	goto	i1l4535
  4525  0DED                     u337_20:
  4526                           	
  4527  0DED                     i1l4529:	
  4528  0DED  3000               	movlw	high(08h)
  4529  0DEE  0264               	subwf	(_i1+1),w	;volatile
  4530  0DEF  3008               	movlw	low(08h)
  4531  0DF0  1903               	skipnz
  4532  0DF1  0263               	subwf	(_i1),w	;volatile
  4533  0DF2  1C03               	skipc
  4534  0DF3  2DF5               	goto	u338_21
  4535  0DF4  2DF6               	goto	u338_20
  4536  0DF5                     u338_21:
  4537  0DF5  2DE1               	goto	i1l4525
  4538  0DF6                     u338_20:
  4539  0DF6  2E4B               	goto	i1l4535
  4540                           	
  4541  0DF7                     i1l821:	
  4542  0DF7  2E4B               	goto	i1l4535
  4543                           	
  4544  0DF8                     i1l822:	
  4545                           	line	252
  4546                           ;main.c: 251: }
  4547                           ;main.c: 252: while (i1==8)
  4548  0DF8  2E4B               	goto	i1l4535
  4549                           	
  4550  0DF9                     i1l824:	
  4551                           	line	256
  4552                           	
  4553  0DF9                     i1l4531:	
  4554                           ;main.c: 253: {
  4555                           ;main.c: 256: int string1 = led0Colors[rand()%6];
  4556  0DF9  3006               	movlw	low(06h)
  4557  0DFA  00A0               	movwf	(?i1___awmod)
  4558  0DFB  3000               	movlw	high(06h)
  4559  0DFC  00A1               	movwf	((?i1___awmod))+1
  4560  0DFD  158A  2550  158A   	fcall	i1_rand
  4561  0E00  1283               	bcf	status, 5	;RP0=0, select bank0
  4562  0E01  1303               	bcf	status, 6	;RP1=0, select bank0
  4563  0E02  0827               	movf	(1+(?i1_rand)),w
  4564  0E03  01A3               	clrf	1+(?i1___awmod)+02h
  4565  0E04  07A3               	addwf	1+(?i1___awmod)+02h
  4566  0E05  0826               	movf	(0+(?i1_rand)),w
  4567  0E06  01A2               	clrf	0+(?i1___awmod)+02h
  4568  0E07  07A2               	addwf	0+(?i1___awmod)+02h
  4569                           
  4570  0E08  158A  240D  158A   	fcall	i1___awmod
  4571  0E0B  1283               	bcf	status, 5	;RP0=0, select bank0
  4572  0E0C  1303               	bcf	status, 6	;RP1=0, select bank0
  4573  0E0D  0820               	movf	(0+(?i1___awmod)),w
  4574  0E0E  00D8               	movwf	(??i1_main+0)+0
  4575  0E0F  0758               	addwf	(??i1_main+0)+0,w
  4576  0E10  3E2B               	addlw	low((_led0Colors-__stringbase))
  4577  0E11  0084               	movwf	fsr0
  4578  0E12  118A  274E  158A   	fcall	stringdir
  4579  0E15  00D9               	movwf	(i1main@string1)
  4580  0E16  118A  274E  158A   	fcall	stringdir
  4581  0E19  00DA               	movwf	(i1main@string1+1)
  4582                           	line	257
  4583                           ;main.c: 257: int string3 = led2Colors[rand()%6];
  4584  0E1A  3006               	movlw	low(06h)
  4585  0E1B  00A0               	movwf	(?i1___awmod)
  4586  0E1C  3000               	movlw	high(06h)
  4587  0E1D  00A1               	movwf	((?i1___awmod))+1
  4588  0E1E  158A  2550  158A   	fcall	i1_rand
  4589  0E21  1283               	bcf	status, 5	;RP0=0, select bank0
  4590  0E22  1303               	bcf	status, 6	;RP1=0, select bank0
  4591  0E23  0827               	movf	(1+(?i1_rand)),w
  4592  0E24  01A3               	clrf	1+(?i1___awmod)+02h
  4593  0E25  07A3               	addwf	1+(?i1___awmod)+02h
  4594  0E26  0826               	movf	(0+(?i1_rand)),w
  4595  0E27  01A2               	clrf	0+(?i1___awmod)+02h
  4596  0E28  07A2               	addwf	0+(?i1___awmod)+02h
  4597                           
  4598  0E29  158A  240D  158A   	fcall	i1___awmod
  4599  0E2C  1283               	bcf	status, 5	;RP0=0, select bank0
  4600  0E2D  1303               	bcf	status, 6	;RP1=0, select bank0
  4601  0E2E  0820               	movf	(0+(?i1___awmod)),w
  4602  0E2F  00D8               	movwf	(??i1_main+0)+0
  4603  0E30  0758               	addwf	(??i1_main+0)+0,w
  4604  0E31  3E4B               	addlw	low((_led2Colors-__stringbase))
  4605  0E32  0084               	movwf	fsr0
  4606  0E33  118A  274E  158A   	fcall	stringdir
  4607  0E36  00DB               	movwf	(i1main@string3)
  4608  0E37  118A  274E  158A   	fcall	stringdir
  4609  0E3A  00DC               	movwf	(i1main@string3+1)
  4610                           	line	260
  4611                           	
  4612  0E3B                     i1l4533:	
  4613                           ;main.c: 260: Mode3(string1, string3);
  4614  0E3B  085A               	movf	(i1main@string1+1),w
  4615  0E3C  01CE               	clrf	(?i1_Mode3+1)
  4616  0E3D  07CE               	addwf	(?i1_Mode3+1)
  4617  0E3E  0859               	movf	(i1main@string1),w
  4618  0E3F  01CD               	clrf	(?i1_Mode3)
  4619  0E40  07CD               	addwf	(?i1_Mode3)
  4620                           
  4621  0E41  085C               	movf	(i1main@string3+1),w
  4622  0E42  01D0               	clrf	1+(?i1_Mode3)+02h
  4623  0E43  07D0               	addwf	1+(?i1_Mode3)+02h
  4624  0E44  085B               	movf	(i1main@string3),w
  4625  0E45  01CF               	clrf	0+(?i1_Mode3)+02h
  4626  0E46  07CF               	addwf	0+(?i1_Mode3)+02h
  4627                           
  4628  0E47  118A  2436  158A   	fcall	i1_Mode3
  4629  0E4A  2E4B               	goto	i1l4535
  4630                           	line	261
  4631                           	
  4632  0E4B                     i1l823:	
  4633                           	line	252
  4634                           	
  4635  0E4B                     i1l4535:	
  4636  0E4B  3008               	movlw	08h
  4637  0E4C  1283               	bcf	status, 5	;RP0=0, select bank0
  4638  0E4D  1303               	bcf	status, 6	;RP1=0, select bank0
  4639  0E4E  0663               	xorwf	(_i1),w	;volatile
  4640  0E4F  0464               	iorwf	(_i1+1),w	;volatile
  4641  0E50  1903               	skipnz
  4642  0E51  2E53               	goto	u339_21
  4643  0E52  2E54               	goto	u339_20
  4644  0E53                     u339_21:
  4645  0E53  2DF9               	goto	i1l4531
  4646  0E54                     u339_20:
  4647  0E54  2E5A               	goto	i1l4539
  4648                           	
  4649  0E55                     i1l825:	
  4650                           	line	262
  4651                           ;main.c: 261: }
  4652                           ;main.c: 262: while (i1==9)
  4653  0E55  2E5A               	goto	i1l4539
  4654                           	
  4655  0E56                     i1l827:	
  4656                           	line	265
  4657                           	
  4658  0E56                     i1l4537:	
  4659                           ;main.c: 263: {
  4660                           ;main.c: 265: Mode4();
  4661  0E56  158A  23A6  158A   	fcall	i1_Mode4
  4662  0E59  2E5A               	goto	i1l4539
  4663                           	line	266
  4664                           	
  4665  0E5A                     i1l826:	
  4666                           	line	262
  4667                           	
  4668  0E5A                     i1l4539:	
  4669  0E5A  3009               	movlw	09h
  4670  0E5B  1283               	bcf	status, 5	;RP0=0, select bank0
  4671  0E5C  1303               	bcf	status, 6	;RP1=0, select bank0
  4672  0E5D  0663               	xorwf	(_i1),w	;volatile
  4673  0E5E  0464               	iorwf	(_i1+1),w	;volatile
  4674  0E5F  1903               	skipnz
  4675  0E60  2E62               	goto	u340_21
  4676  0E61  2E63               	goto	u340_20
  4677  0E62                     u340_21:
  4678  0E62  2E56               	goto	i1l4537
  4679  0E63                     u340_20:
  4680  0E63  2E69               	goto	i1l4543
  4681                           	
  4682  0E64                     i1l828:	
  4683                           	line	267
  4684                           ;main.c: 266: }
  4685                           ;main.c: 267: while (i1==10)
  4686  0E64  2E69               	goto	i1l4543
  4687                           	
  4688  0E65                     i1l830:	
  4689                           	line	270
  4690                           	
  4691  0E65                     i1l4541:	
  4692                           ;main.c: 268: {
  4693                           ;main.c: 270: Mode5();
  4694  0E65  118A  21C0  158A   	fcall	i1_Mode5
  4695  0E68  2E69               	goto	i1l4543
  4696                           	line	271
  4697                           	
  4698  0E69                     i1l829:	
  4699                           	line	267
  4700                           	
  4701  0E69                     i1l4543:	
  4702  0E69  300A               	movlw	0Ah
  4703  0E6A  1283               	bcf	status, 5	;RP0=0, select bank0
  4704  0E6B  1303               	bcf	status, 6	;RP1=0, select bank0
  4705  0E6C  0663               	xorwf	(_i1),w	;volatile
  4706  0E6D  0464               	iorwf	(_i1+1),w	;volatile
  4707  0E6E  1903               	skipnz
  4708  0E6F  2E71               	goto	u341_21
  4709  0E70  2E72               	goto	u341_20
  4710  0E71                     u341_21:
  4711  0E71  2E65               	goto	i1l4541
  4712  0E72                     u341_20:
  4713  0E72  2E78               	goto	i1l4547
  4714                           	
  4715  0E73                     i1l831:	
  4716                           	line	272
  4717                           ;main.c: 271: }
  4718                           ;main.c: 272: while (i1==11)
  4719  0E73  2E78               	goto	i1l4547
  4720                           	
  4721  0E74                     i1l833:	
  4722                           	line	275
  4723                           	
  4724  0E74                     i1l4545:	
  4725                           ;main.c: 273: {
  4726                           ;main.c: 275: Mode6();
  4727  0E74  158A  273F  158A   	fcall	i1_Mode6
  4728  0E77  2E78               	goto	i1l4547
  4729                           	line	276
  4730                           	
  4731  0E78                     i1l832:	
  4732                           	line	272
  4733                           	
  4734  0E78                     i1l4547:	
  4735  0E78  300B               	movlw	0Bh
  4736  0E79  1283               	bcf	status, 5	;RP0=0, select bank0
  4737  0E7A  1303               	bcf	status, 6	;RP1=0, select bank0
  4738  0E7B  0663               	xorwf	(_i1),w	;volatile
  4739  0E7C  0464               	iorwf	(_i1+1),w	;volatile
  4740  0E7D  1903               	skipnz
  4741  0E7E  2E80               	goto	u342_21
  4742  0E7F  2E81               	goto	u342_20
  4743  0E80                     u342_21:
  4744  0E80  2E74               	goto	i1l4545
  4745  0E81                     u342_20:
  4746  0E81  2DD7               	goto	i1l4523
  4747                           	
  4748  0E82                     i1l834:	
  4749  0E82  2DD7               	goto	i1l4523
  4750                           	line	277
  4751                           	
  4752  0E83                     i1l835:	
  4753                           	line	240
  4754  0E83  2DD7               	goto	i1l4523
  4755                           	
  4756  0E84                     i1l836:	
  4757                           	line	278
  4758                           	
  4759  0E84                     i1l837:	
  4760  0E84  0008               	return
  4761                           	opt stack 0
  4762                           GLOBAL	__end_ofi1_main
  4763  0E85                     	__end_ofi1_main:
  4764 ;; =============== function i1_main ends ============
  4765                           
  4766                           	signat	i1_main,90
  4767                           	global	i1_Mode6
  4768                           psect	text669,local,class=CODE,delta=2
  4769                           global __ptext669
  4770  0F3F                     __ptext669:
  4771                           
  4772 ;; *************** function i1_Mode6 *****************
  4773 ;; Defined at:
  4774 ;;		line 183 in file "main.c"
  4775 ;; Parameters:    Size  Location     Type
  4776 ;;		None
  4777 ;; Auto vars:     Size  Location     Type
  4778 ;;		None
  4779 ;; Return value:  Size  Location     Type
  4780 ;;		None               void
  4781 ;; Registers used:
  4782 ;;		wreg, fsr0l, fsr0h, status,2, status,0, btemp+1, pclath, cstack
  4783 ;; Tracked objects:
  4784 ;;		On entry : 0/0
  4785 ;;		On exit  : 0/0
  4786 ;;		Unchanged: 0/0
  4787 ;; Data sizes:     COMMON   BANK0   BANK1   BANK2
  4788 ;;      Params:         0       0       0       0
  4789 ;;      Locals:         0       0       0       0
  4790 ;;      Temps:          0       1       0       0
  4791 ;;      Totals:         0       1       0       0
  4792 ;;Total ram usage:        1 bytes
  4793 ;; Hardware stack levels used:    1
  4794 ;; Hardware stack levels required when called:    2
  4795 ;; This function calls:
  4796 ;;		i1_rand
  4797 ;;		i1___awmod
  4798 ;;		i1_ChangeLED
  4799 ;; This function is called by:
  4800 ;;		i1_main
  4801 ;; This function uses a non-reentrant model
  4802 ;;
  4803                           psect	text669
  4804                           	file	"main.c"
  4805                           	line	183
  4806                           	global	__size_ofi1_Mode6
  4807  00C1                     	__size_ofi1_Mode6	equ	__end_ofi1_Mode6-i1_Mode6
  4808                           	
  4809  0F3F                     i1_Mode6:	
  4810                           	opt	stack 0
  4811                           ; Regs used in i1_Mode6: [wreg-fsr0h+status,2+status,0+btemp+1+pclath+cstack]
  4812                           	line	188
  4813                           	
  4814  0F3F                     i1l4497:	
  4815                           ;main.c: 185: ChangeLED(&PORTC, &PORTB,
  4816                           ;main.c: 186: rand()%200, rand()%200,
  4817                           ;main.c: 187: rand()%7, rand()%7,
  4818                           ;main.c: 188: rand()%112, rand()%112, rand()%50);
  4819  0F3F  3006               	movlw	(6)&0ffh
  4820  0F40  1283               	bcf	status, 5	;RP0=0, select bank0
  4821  0F41  1303               	bcf	status, 6	;RP1=0, select bank0
  4822  0F42  00CD               	movwf	(??i1_Mode6+0)+0
  4823  0F43  084D               	movf	(??i1_Mode6+0)+0,w
  4824  0F44  00B1               	movwf	(?i1_ChangeLED)
  4825  0F45  30C8               	movlw	low(0C8h)
  4826  0F46  00A0               	movwf	(?i1___awmod)
  4827  0F47  3000               	movlw	high(0C8h)
  4828  0F48  00A1               	movwf	((?i1___awmod))+1
  4829  0F49  158A  2550  158A   	fcall	i1_rand
  4830  0F4C  1283               	bcf	status, 5	;RP0=0, select bank0
  4831  0F4D  1303               	bcf	status, 6	;RP1=0, select bank0
  4832  0F4E  0827               	movf	(1+(?i1_rand)),w
  4833  0F4F  01A3               	clrf	1+(?i1___awmod)+02h
  4834  0F50  07A3               	addwf	1+(?i1___awmod)+02h
  4835  0F51  0826               	movf	(0+(?i1_rand)),w
  4836  0F52  01A2               	clrf	0+(?i1___awmod)+02h
  4837  0F53  07A2               	addwf	0+(?i1___awmod)+02h
  4838                           
  4839  0F54  158A  240D  158A   	fcall	i1___awmod
  4840  0F57  1283               	bcf	status, 5	;RP0=0, select bank0
  4841  0F58  1303               	bcf	status, 6	;RP1=0, select bank0
  4842  0F59  0821               	movf	(1+(?i1___awmod)),w
  4843  0F5A  01B3               	clrf	1+(?i1_ChangeLED)+01h
  4844  0F5B  07B3               	addwf	1+(?i1_ChangeLED)+01h
  4845  0F5C  0820               	movf	(0+(?i1___awmod)),w
  4846  0F5D  01B2               	clrf	0+(?i1_ChangeLED)+01h
  4847  0F5E  07B2               	addwf	0+(?i1_ChangeLED)+01h
  4848                           
  4849  0F5F  30C8               	movlw	low(0C8h)
  4850  0F60  00A0               	movwf	(?i1___awmod)
  4851  0F61  3000               	movlw	high(0C8h)
  4852  0F62  00A1               	movwf	((?i1___awmod))+1
  4853  0F63  158A  2550  158A   	fcall	i1_rand
  4854  0F66  1283               	bcf	status, 5	;RP0=0, select bank0
  4855  0F67  1303               	bcf	status, 6	;RP1=0, select bank0
  4856  0F68  0827               	movf	(1+(?i1_rand)),w
  4857  0F69  01A3               	clrf	1+(?i1___awmod)+02h
  4858  0F6A  07A3               	addwf	1+(?i1___awmod)+02h
  4859  0F6B  0826               	movf	(0+(?i1_rand)),w
  4860  0F6C  01A2               	clrf	0+(?i1___awmod)+02h
  4861  0F6D  07A2               	addwf	0+(?i1___awmod)+02h
  4862                           
  4863  0F6E  158A  240D  158A   	fcall	i1___awmod
  4864  0F71  1283               	bcf	status, 5	;RP0=0, select bank0
  4865  0F72  1303               	bcf	status, 6	;RP1=0, select bank0
  4866  0F73  0821               	movf	(1+(?i1___awmod)),w
  4867  0F74  01B5               	clrf	1+(?i1_ChangeLED)+03h
  4868  0F75  07B5               	addwf	1+(?i1_ChangeLED)+03h
  4869  0F76  0820               	movf	(0+(?i1___awmod)),w
  4870  0F77  01B4               	clrf	0+(?i1_ChangeLED)+03h
  4871  0F78  07B4               	addwf	0+(?i1_ChangeLED)+03h
  4872                           
  4873  0F79  3007               	movlw	low(07h)
  4874  0F7A  00A0               	movwf	(?i1___awmod)
  4875  0F7B  3000               	movlw	high(07h)
  4876  0F7C  00A1               	movwf	((?i1___awmod))+1
  4877  0F7D  158A  2550  158A   	fcall	i1_rand
  4878  0F80  1283               	bcf	status, 5	;RP0=0, select bank0
  4879  0F81  1303               	bcf	status, 6	;RP1=0, select bank0
  4880  0F82  0827               	movf	(1+(?i1_rand)),w
  4881  0F83  01A3               	clrf	1+(?i1___awmod)+02h
  4882  0F84  07A3               	addwf	1+(?i1___awmod)+02h
  4883  0F85  0826               	movf	(0+(?i1_rand)),w
  4884  0F86  01A2               	clrf	0+(?i1___awmod)+02h
  4885  0F87  07A2               	addwf	0+(?i1___awmod)+02h
  4886                           
  4887  0F88  158A  240D  158A   	fcall	i1___awmod
  4888  0F8B  1283               	bcf	status, 5	;RP0=0, select bank0
  4889  0F8C  1303               	bcf	status, 6	;RP1=0, select bank0
  4890  0F8D  0821               	movf	(1+(?i1___awmod)),w
  4891  0F8E  01B7               	clrf	1+(?i1_ChangeLED)+05h
  4892  0F8F  07B7               	addwf	1+(?i1_ChangeLED)+05h
  4893  0F90  0820               	movf	(0+(?i1___awmod)),w
  4894  0F91  01B6               	clrf	0+(?i1_ChangeLED)+05h
  4895  0F92  07B6               	addwf	0+(?i1_ChangeLED)+05h
  4896                           
  4897  0F93  3007               	movlw	low(07h)
  4898  0F94  00A0               	movwf	(?i1___awmod)
  4899  0F95  3000               	movlw	high(07h)
  4900  0F96  00A1               	movwf	((?i1___awmod))+1
  4901  0F97  158A  2550  158A   	fcall	i1_rand
  4902  0F9A  1283               	bcf	status, 5	;RP0=0, select bank0
  4903  0F9B  1303               	bcf	status, 6	;RP1=0, select bank0
  4904  0F9C  0827               	movf	(1+(?i1_rand)),w
  4905  0F9D  01A3               	clrf	1+(?i1___awmod)+02h
  4906  0F9E  07A3               	addwf	1+(?i1___awmod)+02h
  4907  0F9F  0826               	movf	(0+(?i1_rand)),w
  4908  0FA0  01A2               	clrf	0+(?i1___awmod)+02h
  4909  0FA1  07A2               	addwf	0+(?i1___awmod)+02h
  4910                           
  4911  0FA2  158A  240D  158A   	fcall	i1___awmod
  4912  0FA5  1283               	bcf	status, 5	;RP0=0, select bank0
  4913  0FA6  1303               	bcf	status, 6	;RP1=0, select bank0
  4914  0FA7  0821               	movf	(1+(?i1___awmod)),w
  4915  0FA8  01B9               	clrf	1+(?i1_ChangeLED)+07h
  4916  0FA9  07B9               	addwf	1+(?i1_ChangeLED)+07h
  4917  0FAA  0820               	movf	(0+(?i1___awmod)),w
  4918  0FAB  01B8               	clrf	0+(?i1_ChangeLED)+07h
  4919  0FAC  07B8               	addwf	0+(?i1_ChangeLED)+07h
  4920                           
  4921  0FAD  3070               	movlw	low(070h)
  4922  0FAE  00A0               	movwf	(?i1___awmod)
  4923  0FAF  3000               	movlw	high(070h)
  4924  0FB0  00A1               	movwf	((?i1___awmod))+1
  4925  0FB1  158A  2550  158A   	fcall	i1_rand
  4926  0FB4  1283               	bcf	status, 5	;RP0=0, select bank0
  4927  0FB5  1303               	bcf	status, 6	;RP1=0, select bank0
  4928  0FB6  0827               	movf	(1+(?i1_rand)),w
  4929  0FB7  01A3               	clrf	1+(?i1___awmod)+02h
  4930  0FB8  07A3               	addwf	1+(?i1___awmod)+02h
  4931  0FB9  0826               	movf	(0+(?i1_rand)),w
  4932  0FBA  01A2               	clrf	0+(?i1___awmod)+02h
  4933  0FBB  07A2               	addwf	0+(?i1___awmod)+02h
  4934                           
  4935  0FBC  158A  240D  158A   	fcall	i1___awmod
  4936  0FBF  1283               	bcf	status, 5	;RP0=0, select bank0
  4937  0FC0  1303               	bcf	status, 6	;RP1=0, select bank0
  4938  0FC1  0821               	movf	(1+(?i1___awmod)),w
  4939  0FC2  01BB               	clrf	1+(?i1_ChangeLED)+09h
  4940  0FC3  07BB               	addwf	1+(?i1_ChangeLED)+09h
  4941  0FC4  0820               	movf	(0+(?i1___awmod)),w
  4942  0FC5  01BA               	clrf	0+(?i1_ChangeLED)+09h
  4943  0FC6  07BA               	addwf	0+(?i1_ChangeLED)+09h
  4944                           
  4945  0FC7  3070               	movlw	low(070h)
  4946  0FC8  00A0               	movwf	(?i1___awmod)
  4947  0FC9  3000               	movlw	high(070h)
  4948  0FCA  00A1               	movwf	((?i1___awmod))+1
  4949  0FCB  158A  2550  158A   	fcall	i1_rand
  4950  0FCE  1283               	bcf	status, 5	;RP0=0, select bank0
  4951  0FCF  1303               	bcf	status, 6	;RP1=0, select bank0
  4952  0FD0  0827               	movf	(1+(?i1_rand)),w
  4953  0FD1  01A3               	clrf	1+(?i1___awmod)+02h
  4954  0FD2  07A3               	addwf	1+(?i1___awmod)+02h
  4955  0FD3  0826               	movf	(0+(?i1_rand)),w
  4956  0FD4  01A2               	clrf	0+(?i1___awmod)+02h
  4957  0FD5  07A2               	addwf	0+(?i1___awmod)+02h
  4958                           
  4959  0FD6  158A  240D  158A   	fcall	i1___awmod
  4960  0FD9  1283               	bcf	status, 5	;RP0=0, select bank0
  4961  0FDA  1303               	bcf	status, 6	;RP1=0, select bank0
  4962  0FDB  0821               	movf	(1+(?i1___awmod)),w
  4963  0FDC  01BD               	clrf	1+(?i1_ChangeLED)+0Bh
  4964  0FDD  07BD               	addwf	1+(?i1_ChangeLED)+0Bh
  4965  0FDE  0820               	movf	(0+(?i1___awmod)),w
  4966  0FDF  01BC               	clrf	0+(?i1_ChangeLED)+0Bh
  4967  0FE0  07BC               	addwf	0+(?i1_ChangeLED)+0Bh
  4968                           
  4969  0FE1  3032               	movlw	low(032h)
  4970  0FE2  00A0               	movwf	(?i1___awmod)
  4971  0FE3  3000               	movlw	high(032h)
  4972  0FE4  00A1               	movwf	((?i1___awmod))+1
  4973  0FE5  158A  2550  158A   	fcall	i1_rand
  4974  0FE8  1283               	bcf	status, 5	;RP0=0, select bank0
  4975  0FE9  1303               	bcf	status, 6	;RP1=0, select bank0
  4976  0FEA  0827               	movf	(1+(?i1_rand)),w
  4977  0FEB  01A3               	clrf	1+(?i1___awmod)+02h
  4978  0FEC  07A3               	addwf	1+(?i1___awmod)+02h
  4979  0FED  0826               	movf	(0+(?i1_rand)),w
  4980  0FEE  01A2               	clrf	0+(?i1___awmod)+02h
  4981  0FEF  07A2               	addwf	0+(?i1___awmod)+02h
  4982                           
  4983  0FF0  158A  240D  158A   	fcall	i1___awmod
  4984  0FF3  1283               	bcf	status, 5	;RP0=0, select bank0
  4985  0FF4  1303               	bcf	status, 6	;RP1=0, select bank0
  4986  0FF5  0821               	movf	(1+(?i1___awmod)),w
  4987  0FF6  01BF               	clrf	1+(?i1_ChangeLED)+0Dh
  4988  0FF7  07BF               	addwf	1+(?i1_ChangeLED)+0Dh
  4989  0FF8  0820               	movf	(0+(?i1___awmod)),w
  4990  0FF9  01BE               	clrf	0+(?i1_ChangeLED)+0Dh
  4991  0FFA  07BE               	addwf	0+(?i1_ChangeLED)+0Dh
  4992                           
  4993  0FFB  3007               	movlw	(7)&0ffh
  4994  0FFC  118A  25C8  158A   	fcall	i1_ChangeLED
  4995                           	line	189
  4996                           	
  4997  0FFF                     i1l800:	
  4998  0FFF  0008               	return
  4999                           	opt stack 0
  5000                           GLOBAL	__end_ofi1_Mode6
  5001  1000                     	__end_ofi1_Mode6:
  5002 ;; =============== function i1_Mode6 ends ============
  5003                           
  5004                           	signat	i1_Mode6,88
  5005                           	global	i1_Mode5
  5006                           psect	text670,local,class=CODE,delta=2
  5007                           global __ptext670
  5008  01C0                     __ptext670:
  5009                           
  5010 ;; *************** function i1_Mode5 *****************
  5011 ;; Defined at:
  5012 ;;		line 174 in file "main.c"
  5013 ;; Parameters:    Size  Location     Type
  5014 ;;		None
  5015 ;; Auto vars:     Size  Location     Type
  5016 ;;		None
  5017 ;; Return value:  Size  Location     Type
  5018 ;;		None               void
  5019 ;; Registers used:
  5020 ;;		wreg, fsr0l, fsr0h, status,2, status,0, btemp+1, pclath, cstack
  5021 ;; Tracked objects:
  5022 ;;		On entry : 0/0
  5023 ;;		On exit  : 0/0
  5024 ;;		Unchanged: 0/0
  5025 ;; Data sizes:     COMMON   BANK0   BANK1   BANK2
  5026 ;;      Params:         0       0       0       0
  5027 ;;      Locals:         0       0       0       0
  5028 ;;      Temps:          0       7       0       0
  5029 ;;      Totals:         0       7       0       0
  5030 ;;Total ram usage:        7 bytes
  5031 ;; Hardware stack levels used:    1
  5032 ;; Hardware stack levels required when called:    2
  5033 ;; This function calls:
  5034 ;;		i1_rand
  5035 ;;		i1___awmod
  5036 ;;		i1_ChangeLED
  5037 ;; This function is called by:
  5038 ;;		i1_main
  5039 ;; This function uses a non-reentrant model
  5040 ;;
  5041                           psect	text670
  5042                           	file	"main.c"
  5043                           	line	174
  5044                           	global	__size_ofi1_Mode5
  5045  00D5                     	__size_ofi1_Mode5	equ	__end_ofi1_Mode5-i1_Mode5
  5046                           	
  5047  01C0                     i1_Mode5:	
  5048 ;; using string table level
  5049                           	opt	stack 1
  5050                           ; Regs used in i1_Mode5: [wreg-fsr0h+status,2+status,0+btemp+1+pclath+cstack]
  5051                           	line	179
  5052                           	
  5053  01C0                     i1l4495:	
  5054                           ;main.c: 176: ChangeLED(&PORTC, &PORTB,
  5055                           ;main.c: 177: led0Colors[rand()%6], led0Colors[rand()%6],
  5056                           ;main.c: 178: led1Colors[rand()%6], led1Colors[rand()%6],
  5057                           ;main.c: 179: led2Colors[rand()%6], led2Colors[rand()%6], 30);
  5058  01C0  3006               	movlw	(6)&0ffh
  5059  01C1  1283               	bcf	status, 5	;RP0=0, select bank0
  5060  01C2  1303               	bcf	status, 6	;RP1=0, select bank0
  5061  01C3  00CD               	movwf	(??i1_Mode5+0)+0
  5062  01C4  084D               	movf	(??i1_Mode5+0)+0,w
  5063  01C5  00B1               	movwf	(?i1_ChangeLED)
  5064  01C6  3006               	movlw	low(06h)
  5065  01C7  00A0               	movwf	(?i1___awmod)
  5066  01C8  3000               	movlw	high(06h)
  5067  01C9  00A1               	movwf	((?i1___awmod))+1
  5068  01CA  158A  2550  118A   	fcall	i1_rand
  5069  01CD  1283               	bcf	status, 5	;RP0=0, select bank0
  5070  01CE  1303               	bcf	status, 6	;RP1=0, select bank0
  5071  01CF  0827               	movf	(1+(?i1_rand)),w
  5072  01D0  01A3               	clrf	1+(?i1___awmod)+02h
  5073  01D1  07A3               	addwf	1+(?i1___awmod)+02h
  5074  01D2  0826               	movf	(0+(?i1_rand)),w
  5075  01D3  01A2               	clrf	0+(?i1___awmod)+02h
  5076  01D4  07A2               	addwf	0+(?i1___awmod)+02h
  5077                           
  5078  01D5  158A  240D  118A   	fcall	i1___awmod
  5079  01D8  1283               	bcf	status, 5	;RP0=0, select bank0
  5080  01D9  1303               	bcf	status, 6	;RP1=0, select bank0
  5081  01DA  0820               	movf	(0+(?i1___awmod)),w
  5082  01DB  00CE               	movwf	(??i1_Mode5+1)+0
  5083  01DC  074E               	addwf	(??i1_Mode5+1)+0,w
  5084  01DD  3E2B               	addlw	low((_led0Colors-__stringbase))
  5085  01DE  0084               	movwf	fsr0
  5086  01DF  118A  274E  118A   	fcall	stringdir
  5087  01E2  00B2               	movwf	0+(?i1_ChangeLED)+01h
  5088  01E3  118A  274E  118A   	fcall	stringdir
  5089  01E6  00B3               	movwf	1+(?i1_ChangeLED)+01h
  5090  01E7  3006               	movlw	low(06h)
  5091  01E8  00A0               	movwf	(?i1___awmod)
  5092  01E9  3000               	movlw	high(06h)
  5093  01EA  00A1               	movwf	((?i1___awmod))+1
  5094  01EB  158A  2550  118A   	fcall	i1_rand
  5095  01EE  1283               	bcf	status, 5	;RP0=0, select bank0
  5096  01EF  1303               	bcf	status, 6	;RP1=0, select bank0
  5097  01F0  0827               	movf	(1+(?i1_rand)),w
  5098  01F1  01A3               	clrf	1+(?i1___awmod)+02h
  5099  01F2  07A3               	addwf	1+(?i1___awmod)+02h
  5100  01F3  0826               	movf	(0+(?i1_rand)),w
  5101  01F4  01A2               	clrf	0+(?i1___awmod)+02h
  5102  01F5  07A2               	addwf	0+(?i1___awmod)+02h
  5103                           
  5104  01F6  158A  240D  118A   	fcall	i1___awmod
  5105  01F9  1283               	bcf	status, 5	;RP0=0, select bank0
  5106  01FA  1303               	bcf	status, 6	;RP1=0, select bank0
  5107  01FB  0820               	movf	(0+(?i1___awmod)),w
  5108  01FC  00CF               	movwf	(??i1_Mode5+2)+0
  5109  01FD  074F               	addwf	(??i1_Mode5+2)+0,w
  5110  01FE  3E2B               	addlw	low((_led0Colors-__stringbase))
  5111  01FF  0084               	movwf	fsr0
  5112  0200  118A  274E  118A   	fcall	stringdir
  5113  0203  00B4               	movwf	0+(?i1_ChangeLED)+03h
  5114  0204  118A  274E  118A   	fcall	stringdir
  5115  0207  00B5               	movwf	1+(?i1_ChangeLED)+03h
  5116  0208  3006               	movlw	low(06h)
  5117  0209  00A0               	movwf	(?i1___awmod)
  5118  020A  3000               	movlw	high(06h)
  5119  020B  00A1               	movwf	((?i1___awmod))+1
  5120  020C  158A  2550  118A   	fcall	i1_rand
  5121  020F  1283               	bcf	status, 5	;RP0=0, select bank0
  5122  0210  1303               	bcf	status, 6	;RP1=0, select bank0
  5123  0211  0827               	movf	(1+(?i1_rand)),w
  5124  0212  01A3               	clrf	1+(?i1___awmod)+02h
  5125  0213  07A3               	addwf	1+(?i1___awmod)+02h
  5126  0214  0826               	movf	(0+(?i1_rand)),w
  5127  0215  01A2               	clrf	0+(?i1___awmod)+02h
  5128  0216  07A2               	addwf	0+(?i1___awmod)+02h
  5129                           
  5130  0217  158A  240D  118A   	fcall	i1___awmod
  5131  021A  1283               	bcf	status, 5	;RP0=0, select bank0
  5132  021B  1303               	bcf	status, 6	;RP1=0, select bank0
  5133  021C  0820               	movf	(0+(?i1___awmod)),w
  5134  021D  00D0               	movwf	(??i1_Mode5+3)+0
  5135  021E  0750               	addwf	(??i1_Mode5+3)+0,w
  5136  021F  3E3B               	addlw	low((_led1Colors-__stringbase))
  5137  0220  0084               	movwf	fsr0
  5138  0221  118A  274E  118A   	fcall	stringdir
  5139  0224  00B6               	movwf	0+(?i1_ChangeLED)+05h
  5140  0225  118A  274E  118A   	fcall	stringdir
  5141  0228  00B7               	movwf	1+(?i1_ChangeLED)+05h
  5142  0229  3006               	movlw	low(06h)
  5143  022A  00A0               	movwf	(?i1___awmod)
  5144  022B  3000               	movlw	high(06h)
  5145  022C  00A1               	movwf	((?i1___awmod))+1
  5146  022D  158A  2550  118A   	fcall	i1_rand
  5147  0230  1283               	bcf	status, 5	;RP0=0, select bank0
  5148  0231  1303               	bcf	status, 6	;RP1=0, select bank0
  5149  0232  0827               	movf	(1+(?i1_rand)),w
  5150  0233  01A3               	clrf	1+(?i1___awmod)+02h
  5151  0234  07A3               	addwf	1+(?i1___awmod)+02h
  5152  0235  0826               	movf	(0+(?i1_rand)),w
  5153  0236  01A2               	clrf	0+(?i1___awmod)+02h
  5154  0237  07A2               	addwf	0+(?i1___awmod)+02h
  5155                           
  5156  0238  158A  240D  118A   	fcall	i1___awmod
  5157  023B  1283               	bcf	status, 5	;RP0=0, select bank0
  5158  023C  1303               	bcf	status, 6	;RP1=0, select bank0
  5159  023D  0820               	movf	(0+(?i1___awmod)),w
  5160  023E  00D1               	movwf	(??i1_Mode5+4)+0
  5161  023F  0751               	addwf	(??i1_Mode5+4)+0,w
  5162  0240  3E3B               	addlw	low((_led1Colors-__stringbase))
  5163  0241  0084               	movwf	fsr0
  5164  0242  118A  274E  118A   	fcall	stringdir
  5165  0245  00B8               	movwf	0+(?i1_ChangeLED)+07h
  5166  0246  118A  274E  118A   	fcall	stringdir
  5167  0249  00B9               	movwf	1+(?i1_ChangeLED)+07h
  5168  024A  3006               	movlw	low(06h)
  5169  024B  00A0               	movwf	(?i1___awmod)
  5170  024C  3000               	movlw	high(06h)
  5171  024D  00A1               	movwf	((?i1___awmod))+1
  5172  024E  158A  2550  118A   	fcall	i1_rand
  5173  0251  1283               	bcf	status, 5	;RP0=0, select bank0
  5174  0252  1303               	bcf	status, 6	;RP1=0, select bank0
  5175  0253  0827               	movf	(1+(?i1_rand)),w
  5176  0254  01A3               	clrf	1+(?i1___awmod)+02h
  5177  0255  07A3               	addwf	1+(?i1___awmod)+02h
  5178  0256  0826               	movf	(0+(?i1_rand)),w
  5179  0257  01A2               	clrf	0+(?i1___awmod)+02h
  5180  0258  07A2               	addwf	0+(?i1___awmod)+02h
  5181                           
  5182  0259  158A  240D  118A   	fcall	i1___awmod
  5183  025C  1283               	bcf	status, 5	;RP0=0, select bank0
  5184  025D  1303               	bcf	status, 6	;RP1=0, select bank0
  5185  025E  0820               	movf	(0+(?i1___awmod)),w
  5186  025F  00D2               	movwf	(??i1_Mode5+5)+0
  5187  0260  0752               	addwf	(??i1_Mode5+5)+0,w
  5188  0261  3E4B               	addlw	low((_led2Colors-__stringbase))
  5189  0262  0084               	movwf	fsr0
  5190  0263  118A  274E  118A   	fcall	stringdir
  5191  0266  00BA               	movwf	0+(?i1_ChangeLED)+09h
  5192  0267  118A  274E  118A   	fcall	stringdir
  5193  026A  00BB               	movwf	1+(?i1_ChangeLED)+09h
  5194  026B  3006               	movlw	low(06h)
  5195  026C  00A0               	movwf	(?i1___awmod)
  5196  026D  3000               	movlw	high(06h)
  5197  026E  00A1               	movwf	((?i1___awmod))+1
  5198  026F  158A  2550  118A   	fcall	i1_rand
  5199  0272  1283               	bcf	status, 5	;RP0=0, select bank0
  5200  0273  1303               	bcf	status, 6	;RP1=0, select bank0
  5201  0274  0827               	movf	(1+(?i1_rand)),w
  5202  0275  01A3               	clrf	1+(?i1___awmod)+02h
  5203  0276  07A3               	addwf	1+(?i1___awmod)+02h
  5204  0277  0826               	movf	(0+(?i1_rand)),w
  5205  0278  01A2               	clrf	0+(?i1___awmod)+02h
  5206  0279  07A2               	addwf	0+(?i1___awmod)+02h
  5207                           
  5208  027A  158A  240D  118A   	fcall	i1___awmod
  5209  027D  1283               	bcf	status, 5	;RP0=0, select bank0
  5210  027E  1303               	bcf	status, 6	;RP1=0, select bank0
  5211  027F  0820               	movf	(0+(?i1___awmod)),w
  5212  0280  00D3               	movwf	(??i1_Mode5+6)+0
  5213  0281  0753               	addwf	(??i1_Mode5+6)+0,w
  5214  0282  3E4B               	addlw	low((_led2Colors-__stringbase))
  5215  0283  0084               	movwf	fsr0
  5216  0284  118A  274E  118A   	fcall	stringdir
  5217  0287  00BC               	movwf	0+(?i1_ChangeLED)+0Bh
  5218  0288  118A  274E  118A   	fcall	stringdir
  5219  028B  00BD               	movwf	1+(?i1_ChangeLED)+0Bh
  5220  028C  301E               	movlw	low(01Eh)
  5221  028D  00BE               	movwf	0+(?i1_ChangeLED)+0Dh
  5222  028E  3000               	movlw	high(01Eh)
  5223  028F  00BF               	movwf	(0+(?i1_ChangeLED)+0Dh)+1
  5224  0290  3007               	movlw	(7)&0ffh
  5225  0291  118A  25C8  118A   	fcall	i1_ChangeLED
  5226                           	line	180
  5227                           	
  5228  0294                     i1l797:	
  5229  0294  0008               	return
  5230                           	opt stack 0
  5231                           GLOBAL	__end_ofi1_Mode5
  5232  0295                     	__end_ofi1_Mode5:
  5233 ;; =============== function i1_Mode5 ends ============
  5234                           
  5235                           	signat	i1_Mode5,88
  5236                           	global	i1_Mode3
  5237                           psect	text671,local,class=CODE,delta=2
  5238                           global __ptext671
  5239  0436                     __ptext671:
  5240                           
  5241 ;; *************** function i1_Mode3 *****************
  5242 ;; Defined at:
  5243 ;;		line 133 in file "main.c"
  5244 ;; Parameters:    Size  Location     Type
  5245 ;;  Mode3           2   45[BANK0 ] int 
  5246 ;;  Mode3           2   47[BANK0 ] int 
  5247 ;; Auto vars:     Size  Location     Type
  5248 ;;  Mode3           2   54[BANK0 ] int 
  5249 ;;  Mode3           2   52[BANK0 ] int 
  5250 ;;  Mode3           2   50[BANK0 ] int 
  5251 ;; Return value:  Size  Location     Type
  5252 ;;		None               void
  5253 ;; Registers used:
  5254 ;;		wreg, fsr0l, fsr0h, status,2, status,0, btemp+1, pclath, cstack
  5255 ;; Tracked objects:
  5256 ;;		On entry : 0/0
  5257 ;;		On exit  : 0/0
  5258 ;;		Unchanged: 0/0
  5259 ;; Data sizes:     COMMON   BANK0   BANK1   BANK2
  5260 ;;      Params:         0       4       0       0
  5261 ;;      Locals:         0       6       0       0
  5262 ;;      Temps:          0       1       0       0
  5263 ;;      Totals:         0      11       0       0
  5264 ;;Total ram usage:       11 bytes
  5265 ;; Hardware stack levels used:    1
  5266 ;; Hardware stack levels required when called:    2
  5267 ;; This function calls:
  5268 ;;		i1_rand
  5269 ;;		i1___awmod
  5270 ;;		i1_ChangeLED
  5271 ;;		i1_Mode3
  5272 ;; This function is called by:
  5273 ;;		i1_main
  5274 ;; This function uses a non-reentrant model
  5275 ;;
  5276                           psect	text671
  5277                           	file	"main.c"
  5278                           	line	133
  5279                           	global	__size_ofi1_Mode3
  5280  00CD                     	__size_ofi1_Mode3	equ	__end_ofi1_Mode3-i1_Mode3
  5281                           	
  5282  0436                     i1_Mode3:	
  5283 ;; using string table level
  5284                           	opt	stack 1
  5285                           ; Regs used in i1_Mode3: [wreg-fsr0h+status,2+status,0+btemp+1+pclath+cstack]
  5286                           	line	137
  5287                           	
  5288  0436                     i1l4467:	
  5289                           ;main.c: 137: int string2 = led1Colors[rand()%6];
  5290  0436  3006               	movlw	low(06h)
  5291  0437  1283               	bcf	status, 5	;RP0=0, select bank0
  5292  0438  1303               	bcf	status, 6	;RP1=0, select bank0
  5293  0439  00A0               	movwf	(?i1___awmod)
  5294  043A  3000               	movlw	high(06h)
  5295  043B  00A1               	movwf	((?i1___awmod))+1
  5296  043C  158A  2550  118A   	fcall	i1_rand
  5297  043F  1283               	bcf	status, 5	;RP0=0, select bank0
  5298  0440  1303               	bcf	status, 6	;RP1=0, select bank0
  5299  0441  0827               	movf	(1+(?i1_rand)),w
  5300  0442  01A3               	clrf	1+(?i1___awmod)+02h
  5301  0443  07A3               	addwf	1+(?i1___awmod)+02h
  5302  0444  0826               	movf	(0+(?i1_rand)),w
  5303  0445  01A2               	clrf	0+(?i1___awmod)+02h
  5304  0446  07A2               	addwf	0+(?i1___awmod)+02h
  5305                           
  5306  0447  158A  240D  118A   	fcall	i1___awmod
  5307  044A  1283               	bcf	status, 5	;RP0=0, select bank0
  5308  044B  1303               	bcf	status, 6	;RP1=0, select bank0
  5309  044C  0820               	movf	(0+(?i1___awmod)),w
  5310  044D  00D1               	movwf	(??i1_Mode3+0)+0
  5311  044E  0751               	addwf	(??i1_Mode3+0)+0,w
  5312  044F  3E3B               	addlw	low((_led1Colors-__stringbase))
  5313  0450  0084               	movwf	fsr0
  5314  0451  118A  274E  118A   	fcall	stringdir
  5315  0454  00D2               	movwf	(i1Mode3@string2)
  5316  0455  118A  274E  118A   	fcall	stringdir
  5317  0458  00D3               	movwf	(i1Mode3@string2+1)
  5318                           	line	142
  5319                           	
  5320  0459                     i1l4469:	
  5321                           ;main.c: 139: ChangeLED(&PORTC, &PORTB,
  5322                           ;main.c: 140: string1, 0,
  5323                           ;main.c: 141: 0, string2,
  5324                           ;main.c: 142: string3, 0, 20);
  5325  0459  3006               	movlw	(6)&0ffh
  5326  045A  00D1               	movwf	(??i1_Mode3+0)+0
  5327  045B  0851               	movf	(??i1_Mode3+0)+0,w
  5328  045C  00B1               	movwf	(?i1_ChangeLED)
  5329  045D  084E               	movf	(i1Mode3@string1+1),w
  5330  045E  01B3               	clrf	1+(?i1_ChangeLED)+01h
  5331  045F  07B3               	addwf	1+(?i1_ChangeLED)+01h
  5332  0460  084D               	movf	(i1Mode3@string1),w
  5333  0461  01B2               	clrf	0+(?i1_ChangeLED)+01h
  5334  0462  07B2               	addwf	0+(?i1_ChangeLED)+01h
  5335                           
  5336  0463  3000               	movlw	low(0)
  5337  0464  00B4               	movwf	0+(?i1_ChangeLED)+03h
  5338  0465  3000               	movlw	high(0)
  5339  0466  00B5               	movwf	(0+(?i1_ChangeLED)+03h)+1
  5340  0467  3000               	movlw	low(0)
  5341  0468  00B6               	movwf	0+(?i1_ChangeLED)+05h
  5342  0469  3000               	movlw	high(0)
  5343  046A  00B7               	movwf	(0+(?i1_ChangeLED)+05h)+1
  5344  046B  0853               	movf	(i1Mode3@string2+1),w
  5345  046C  01B9               	clrf	1+(?i1_ChangeLED)+07h
  5346  046D  07B9               	addwf	1+(?i1_ChangeLED)+07h
  5347  046E  0852               	movf	(i1Mode3@string2),w
  5348  046F  01B8               	clrf	0+(?i1_ChangeLED)+07h
  5349  0470  07B8               	addwf	0+(?i1_ChangeLED)+07h
  5350                           
  5351  0471  0850               	movf	(i1Mode3@string3+1),w
  5352  0472  01BB               	clrf	1+(?i1_ChangeLED)+09h
  5353  0473  07BB               	addwf	1+(?i1_ChangeLED)+09h
  5354  0474  084F               	movf	(i1Mode3@string3),w
  5355  0475  01BA               	clrf	0+(?i1_ChangeLED)+09h
  5356  0476  07BA               	addwf	0+(?i1_ChangeLED)+09h
  5357                           
  5358  0477  3000               	movlw	low(0)
  5359  0478  00BC               	movwf	0+(?i1_ChangeLED)+0Bh
  5360  0479  3000               	movlw	high(0)
  5361  047A  00BD               	movwf	(0+(?i1_ChangeLED)+0Bh)+1
  5362  047B  3014               	movlw	low(014h)
  5363  047C  00BE               	movwf	0+(?i1_ChangeLED)+0Dh
  5364  047D  3000               	movlw	high(014h)
  5365  047E  00BF               	movwf	(0+(?i1_ChangeLED)+0Dh)+1
  5366  047F  3007               	movlw	(7)&0ffh
  5367  0480  118A  25C8  118A   	fcall	i1_ChangeLED
  5368                           	line	145
  5369                           	
  5370  0483                     i1l4471:	
  5371                           ;main.c: 145: int newstring1 = led0Colors[rand()%6];
  5372  0483  3006               	movlw	low(06h)
  5373  0484  1283               	bcf	status, 5	;RP0=0, select bank0
  5374  0485  1303               	bcf	status, 6	;RP1=0, select bank0
  5375  0486  00A0               	movwf	(?i1___awmod)
  5376  0487  3000               	movlw	high(06h)
  5377  0488  00A1               	movwf	((?i1___awmod))+1
  5378  0489  158A  2550  118A   	fcall	i1_rand
  5379  048C  1283               	bcf	status, 5	;RP0=0, select bank0
  5380  048D  1303               	bcf	status, 6	;RP1=0, select bank0
  5381  048E  0827               	movf	(1+(?i1_rand)),w
  5382  048F  01A3               	clrf	1+(?i1___awmod)+02h
  5383  0490  07A3               	addwf	1+(?i1___awmod)+02h
  5384  0491  0826               	movf	(0+(?i1_rand)),w
  5385  0492  01A2               	clrf	0+(?i1___awmod)+02h
  5386  0493  07A2               	addwf	0+(?i1___awmod)+02h
  5387                           
  5388  0494  158A  240D  118A   	fcall	i1___awmod
  5389  0497  1283               	bcf	status, 5	;RP0=0, select bank0
  5390  0498  1303               	bcf	status, 6	;RP1=0, select bank0
  5391  0499  0820               	movf	(0+(?i1___awmod)),w
  5392  049A  00D1               	movwf	(??i1_Mode3+0)+0
  5393  049B  0751               	addwf	(??i1_Mode3+0)+0,w
  5394  049C  3E2B               	addlw	low((_led0Colors-__stringbase))
  5395  049D  0084               	movwf	fsr0
  5396  049E  118A  274E  118A   	fcall	stringdir
  5397  04A1  00D4               	movwf	(i1Mode3@newstring1)
  5398  04A2  118A  274E  118A   	fcall	stringdir
  5399  04A5  00D5               	movwf	(i1Mode3@newstring1+1)
  5400                           	line	146
  5401                           	
  5402  04A6                     i1l4473:	
  5403                           ;main.c: 146: int newstring3 = led2Colors[rand()%6];
  5404  04A6  3006               	movlw	low(06h)
  5405  04A7  00A0               	movwf	(?i1___awmod)
  5406  04A8  3000               	movlw	high(06h)
  5407  04A9  00A1               	movwf	((?i1___awmod))+1
  5408  04AA  158A  2550  118A   	fcall	i1_rand
  5409  04AD  1283               	bcf	status, 5	;RP0=0, select bank0
  5410  04AE  1303               	bcf	status, 6	;RP1=0, select bank0
  5411  04AF  0827               	movf	(1+(?i1_rand)),w
  5412  04B0  01A3               	clrf	1+(?i1___awmod)+02h
  5413  04B1  07A3               	addwf	1+(?i1___awmod)+02h
  5414  04B2  0826               	movf	(0+(?i1_rand)),w
  5415  04B3  01A2               	clrf	0+(?i1___awmod)+02h
  5416  04B4  07A2               	addwf	0+(?i1___awmod)+02h
  5417                           
  5418  04B5  158A  240D  118A   	fcall	i1___awmod
  5419  04B8  1283               	bcf	status, 5	;RP0=0, select bank0
  5420  04B9  1303               	bcf	status, 6	;RP1=0, select bank0
  5421  04BA  0820               	movf	(0+(?i1___awmod)),w
  5422  04BB  00D1               	movwf	(??i1_Mode3+0)+0
  5423  04BC  0751               	addwf	(??i1_Mode3+0)+0,w
  5424  04BD  3E4B               	addlw	low((_led2Colors-__stringbase))
  5425  04BE  0084               	movwf	fsr0
  5426  04BF  118A  274E  118A   	fcall	stringdir
  5427  04C2  00D6               	movwf	(i1Mode3@newstring3)
  5428  04C3  118A  274E  118A   	fcall	stringdir
  5429  04C6  00D7               	movwf	(i1Mode3@newstring3+1)
  5430                           	line	151
  5431                           	
  5432  04C7                     i1l4475:	
  5433                           ;main.c: 148: ChangeLED(&PORTC, &PORTB,
  5434                           ;main.c: 149: 0, newstring1,
  5435                           ;main.c: 150: string2, 0,
  5436                           ;main.c: 151: 0, newstring3, 20);
  5437  04C7  3006               	movlw	(6)&0ffh
  5438  04C8  00D1               	movwf	(??i1_Mode3+0)+0
  5439  04C9  0851               	movf	(??i1_Mode3+0)+0,w
  5440  04CA  00B1               	movwf	(?i1_ChangeLED)
  5441  04CB  3000               	movlw	low(0)
  5442  04CC  00B2               	movwf	0+(?i1_ChangeLED)+01h
  5443  04CD  3000               	movlw	high(0)
  5444  04CE  00B3               	movwf	(0+(?i1_ChangeLED)+01h)+1
  5445  04CF  0855               	movf	(i1Mode3@newstring1+1),w
  5446  04D0  01B5               	clrf	1+(?i1_ChangeLED)+03h
  5447  04D1  07B5               	addwf	1+(?i1_ChangeLED)+03h
  5448  04D2  0854               	movf	(i1Mode3@newstring1),w
  5449  04D3  01B4               	clrf	0+(?i1_ChangeLED)+03h
  5450  04D4  07B4               	addwf	0+(?i1_ChangeLED)+03h
  5451                           
  5452  04D5  0853               	movf	(i1Mode3@string2+1),w
  5453  04D6  01B7               	clrf	1+(?i1_ChangeLED)+05h
  5454  04D7  07B7               	addwf	1+(?i1_ChangeLED)+05h
  5455  04D8  0852               	movf	(i1Mode3@string2),w
  5456  04D9  01B6               	clrf	0+(?i1_ChangeLED)+05h
  5457  04DA  07B6               	addwf	0+(?i1_ChangeLED)+05h
  5458                           
  5459  04DB  3000               	movlw	low(0)
  5460  04DC  00B8               	movwf	0+(?i1_ChangeLED)+07h
  5461  04DD  3000               	movlw	high(0)
  5462  04DE  00B9               	movwf	(0+(?i1_ChangeLED)+07h)+1
  5463  04DF  3000               	movlw	low(0)
  5464  04E0  00BA               	movwf	0+(?i1_ChangeLED)+09h
  5465  04E1  3000               	movlw	high(0)
  5466  04E2  00BB               	movwf	(0+(?i1_ChangeLED)+09h)+1
  5467  04E3  0857               	movf	(i1Mode3@newstring3+1),w
  5468  04E4  01BD               	clrf	1+(?i1_ChangeLED)+0Bh
  5469  04E5  07BD               	addwf	1+(?i1_ChangeLED)+0Bh
  5470  04E6  0856               	movf	(i1Mode3@newstring3),w
  5471  04E7  01BC               	clrf	0+(?i1_ChangeLED)+0Bh
  5472  04E8  07BC               	addwf	0+(?i1_ChangeLED)+0Bh
  5473                           
  5474  04E9  3014               	movlw	low(014h)
  5475  04EA  00BE               	movwf	0+(?i1_ChangeLED)+0Dh
  5476  04EB  3000               	movlw	high(014h)
  5477  04EC  00BF               	movwf	(0+(?i1_ChangeLED)+0Dh)+1
  5478  04ED  3007               	movlw	(7)&0ffh
  5479  04EE  118A  25C8  118A   	fcall	i1_ChangeLED
  5480                           	line	154
  5481                           	
  5482  04F1                     i1l4477:	
  5483                           ;main.c: 154: Mode3(newstring1, newstring3);
  5484  04F1  1283               	bcf	status, 5	;RP0=0, select bank0
  5485  04F2  1303               	bcf	status, 6	;RP1=0, select bank0
  5486  04F3  0855               	movf	(i1Mode3@newstring1+1),w
  5487  04F4  01CE               	clrf	(?i1_Mode3+1)
  5488  04F5  07CE               	addwf	(?i1_Mode3+1)
  5489  04F6  0854               	movf	(i1Mode3@newstring1),w
  5490  04F7  01CD               	clrf	(?i1_Mode3)
  5491  04F8  07CD               	addwf	(?i1_Mode3)
  5492                           
  5493  04F9  0857               	movf	(i1Mode3@newstring3+1),w
  5494  04FA  01D0               	clrf	1+(?i1_Mode3)+02h
  5495  04FB  07D0               	addwf	1+(?i1_Mode3)+02h
  5496  04FC  0856               	movf	(i1Mode3@newstring3),w
  5497  04FD  01CF               	clrf	0+(?i1_Mode3)+02h
  5498  04FE  07CF               	addwf	0+(?i1_Mode3)+02h
  5499                           
  5500  04FF  118A  2436  118A   	fcall	i1_Mode3
  5501                           	line	155
  5502                           	
  5503  0502                     i1l791:	
  5504  0502  0008               	return
  5505                           	opt stack 0
  5506                           GLOBAL	__end_ofi1_Mode3
  5507  0503                     	__end_ofi1_Mode3:
  5508 ;; =============== function i1_Mode3 ends ============
  5509                           
  5510                           	signat	i1_Mode3,88
  5511                           	global	i1_Mode1
  5512                           psect	text672,local,class=CODE,delta=2
  5513                           global __ptext672
  5514  0295                     __ptext672:
  5515                           
  5516 ;; *************** function i1_Mode1 *****************
  5517 ;; Defined at:
  5518 ;;		line 102 in file "main.c"
  5519 ;; Parameters:    Size  Location     Type
  5520 ;;		None
  5521 ;; Auto vars:     Size  Location     Type
  5522 ;;  Mode1           2   54[BANK0 ] int 
  5523 ;;  Mode1           2   52[BANK0 ] int 
  5524 ;; Return value:  Size  Location     Type
  5525 ;;		None               void
  5526 ;; Registers used:
  5527 ;;		wreg, fsr0l, fsr0h, status,2, status,0, btemp+1, pclath, cstack
  5528 ;; Tracked objects:
  5529 ;;		On entry : 0/0
  5530 ;;		On exit  : 0/0
  5531 ;;		Unchanged: 0/0
  5532 ;; Data sizes:     COMMON   BANK0   BANK1   BANK2
  5533 ;;      Params:         0       0       0       0
  5534 ;;      Locals:         0       4       0       0
  5535 ;;      Temps:          0       7       0       0
  5536 ;;      Totals:         0      11       0       0
  5537 ;;Total ram usage:       11 bytes
  5538 ;; Hardware stack levels used:    1
  5539 ;; Hardware stack levels required when called:    2
  5540 ;; This function calls:
  5541 ;;		i1_ChangeLED
  5542 ;; This function is called by:
  5543 ;;		i1_main
  5544 ;; This function uses a non-reentrant model
  5545 ;;
  5546                           psect	text672
  5547                           	file	"main.c"
  5548                           	line	102
  5549                           	global	__size_ofi1_Mode1
  5550  00D4                     	__size_ofi1_Mode1	equ	__end_ofi1_Mode1-i1_Mode1
  5551                           	
  5552  0295                     i1_Mode1:	
  5553 ;; using string table level
  5554                           	opt	stack 1
  5555                           ; Regs used in i1_Mode1: [wreg-fsr0h+status,2+status,0+btemp+1+pclath+cstack]
  5556                           	line	108
  5557                           	
  5558  0295                     i1l4439:	
  5559                           ;main.c: 108: PORTC = red0 | red1;
  5560  0295  3075               	movlw	(_red1-__stringbase)
  5561  0296  0084               	movwf	fsr0
  5562  0297  118A  274E  118A   	fcall	stringdir
  5563  029A  1283               	bcf	status, 5	;RP0=0, select bank0
  5564  029B  1303               	bcf	status, 6	;RP1=0, select bank0
  5565  029C  00CD               	movwf	(??i1_Mode1+0)+0
  5566  029D  3073               	movlw	(_red0-__stringbase)
  5567  029E  0084               	movwf	fsr0
  5568  029F  118A  274E  118A   	fcall	stringdir
  5569  02A2  044D               	iorwf	(??i1_Mode1+0)+0,w
  5570  02A3  0087               	movwf	(7)	;volatile
  5571                           	line	109
  5572                           	
  5573  02A4                     i1l4441:	
  5574                           ;main.c: 109: PORTB = red2;
  5575  02A4  3077               	movlw	(_red2-__stringbase)
  5576  02A5  0084               	movwf	fsr0
  5577  02A6  118A  274E  118A   	fcall	stringdir
  5578  02A9  0086               	movwf	(6)	;volatile
  5579                           	line	112
  5580                           	
  5581  02AA                     i1l4443:	
  5582                           ;main.c: 112: for (int j=0; j<7; j++)
  5583  02AA  01D6               	clrf	(i1Mode1@j)
  5584  02AB  01D7               	clrf	(i1Mode1@j+1)
  5585                           	
  5586  02AC                     i1l4445:	
  5587  02AC  0857               	movf	(i1Mode1@j+1),w
  5588  02AD  3A80               	xorlw	80h
  5589  02AE  00FF               	movwf	btemp+1
  5590  02AF  3080               	movlw	(high(07h))^80h
  5591  02B0  027F               	subwf	btemp+1,w
  5592  02B1  1D03               	skipz
  5593  02B2  2AB5               	goto	u332_25
  5594  02B3  3007               	movlw	low(07h)
  5595  02B4  0256               	subwf	(i1Mode1@j),w
  5596  02B5                     u332_25:
  5597                           
  5598  02B5  1C03               	skipc
  5599  02B6  2AB8               	goto	u332_21
  5600  02B7  2AB9               	goto	u332_20
  5601  02B8                     u332_21:
  5602  02B8  2ABB               	goto	i1l4449
  5603  02B9                     u332_20:
  5604  02B9  2B68               	goto	i1l785
  5605                           	
  5606  02BA                     i1l4447:	
  5607  02BA  2B68               	goto	i1l785
  5608                           	line	113
  5609                           	
  5610  02BB                     i1l781:	
  5611                           	line	114
  5612                           	
  5613  02BB                     i1l4449:	
  5614                           ;main.c: 113: {
  5615                           ;main.c: 114: for(int i=0; i<8; i++)
  5616  02BB  1283               	bcf	status, 5	;RP0=0, select bank0
  5617  02BC  1303               	bcf	status, 6	;RP1=0, select bank0
  5618  02BD  01D4               	clrf	(i1Mode1@i)
  5619  02BE  01D5               	clrf	(i1Mode1@i+1)
  5620                           	
  5621  02BF                     i1l4451:	
  5622  02BF  0855               	movf	(i1Mode1@i+1),w
  5623  02C0  3A80               	xorlw	80h
  5624  02C1  00FF               	movwf	btemp+1
  5625  02C2  3080               	movlw	(high(08h))^80h
  5626  02C3  027F               	subwf	btemp+1,w
  5627  02C4  1D03               	skipz
  5628  02C5  2AC8               	goto	u333_25
  5629  02C6  3008               	movlw	low(08h)
  5630  02C7  0254               	subwf	(i1Mode1@i),w
  5631  02C8                     u333_25:
  5632                           
  5633  02C8  1C03               	skipc
  5634  02C9  2ACB               	goto	u333_21
  5635  02CA  2ACC               	goto	u333_20
  5636  02CB                     u333_21:
  5637  02CB  2ACE               	goto	i1l4455
  5638  02CC                     u333_20:
  5639  02CC  2AF3               	goto	i1l4459
  5640                           	
  5641  02CD                     i1l4453:	
  5642  02CD  2AF3               	goto	i1l4459
  5643                           	line	115
  5644                           	
  5645  02CE                     i1l783:	
  5646                           	line	116
  5647                           	
  5648  02CE                     i1l4455:	
  5649                           ;main.c: 115: {
  5650                           ;main.c: 116: _delay((unsigned long)((500)*(4000000/4000.0)));
  5651                           	opt asmopt_off
  5652  02CE  3003               movlw  3
  5653  02CF  1283               	bcf	status, 5	;RP0=0, select bank0
  5654  02D0  1303               	bcf	status, 6	;RP1=0, select bank0
  5655  02D1  00CF               movwf	((??i1_Mode1+0)+0+2),f
  5656  02D2  308A               movlw	138
  5657  02D3  00CE               movwf	((??i1_Mode1+0)+0+1),f
  5658  02D4  3056               	movlw	86
  5659  02D5  00CD               movwf	((??i1_Mode1+0)+0),f
  5660  02D6                     u387_27:
  5661  02D6  0BCD               	decfsz	((??i1_Mode1+0)+0),f
  5662  02D7  2AD6               	goto	u387_27
  5663  02D8  0BCE               	decfsz	((??i1_Mode1+0)+0+1),f
  5664  02D9  2AD6               	goto	u387_27
  5665  02DA  0BCF               	decfsz	((??i1_Mode1+0)+0+2),f
  5666  02DB  2AD6               	goto	u387_27
  5667  02DC  2ADD               	nop2
  5668                           opt asmopt_on
  5669                           
  5670                           	line	114
  5671  02DD  3001               	movlw	low(01h)
  5672  02DE  1283               	bcf	status, 5	;RP0=0, select bank0
  5673  02DF  1303               	bcf	status, 6	;RP1=0, select bank0
  5674  02E0  07D4               	addwf	(i1Mode1@i),f
  5675  02E1  1803               	skipnc
  5676  02E2  0AD5               	incf	(i1Mode1@i+1),f
  5677  02E3  3000               	movlw	high(01h)
  5678  02E4  07D5               	addwf	(i1Mode1@i+1),f
  5679                           	
  5680  02E5                     i1l4457:	
  5681  02E5  0855               	movf	(i1Mode1@i+1),w
  5682  02E6  3A80               	xorlw	80h
  5683  02E7  00FF               	movwf	btemp+1
  5684  02E8  3080               	movlw	(high(08h))^80h
  5685  02E9  027F               	subwf	btemp+1,w
  5686  02EA  1D03               	skipz
  5687  02EB  2AEE               	goto	u334_25
  5688  02EC  3008               	movlw	low(08h)
  5689  02ED  0254               	subwf	(i1Mode1@i),w
  5690  02EE                     u334_25:
  5691                           
  5692  02EE  1C03               	skipc
  5693  02EF  2AF1               	goto	u334_21
  5694  02F0  2AF2               	goto	u334_20
  5695  02F1                     u334_21:
  5696  02F1  2ACE               	goto	i1l4455
  5697  02F2                     u334_20:
  5698  02F2  2AF3               	goto	i1l4459
  5699                           	
  5700  02F3                     i1l784:	
  5701                           	line	121
  5702                           	
  5703  02F3                     i1l4459:	
  5704                           ;main.c: 117: }
  5705                           ;main.c: 118: ChangeLED(&PORTC, &PORTB,
  5706                           ;main.c: 119: led0Colors[j], led0Colors[j+1],
  5707                           ;main.c: 120: led1Colors[j], led1Colors[j+1],
  5708                           ;main.c: 121: led2Colors[j], led2Colors[j+1], 28);
  5709  02F3  3006               	movlw	(6)&0ffh
  5710  02F4  1283               	bcf	status, 5	;RP0=0, select bank0
  5711  02F5  1303               	bcf	status, 6	;RP1=0, select bank0
  5712  02F6  00CD               	movwf	(??i1_Mode1+0)+0
  5713  02F7  084D               	movf	(??i1_Mode1+0)+0,w
  5714  02F8  00B1               	movwf	(?i1_ChangeLED)
  5715  02F9  0856               	movf	(i1Mode1@j),w
  5716  02FA  00CE               	movwf	(??i1_Mode1+1)+0
  5717  02FB  074E               	addwf	(??i1_Mode1+1)+0,w
  5718  02FC  3E2B               	addlw	low((_led0Colors-__stringbase))
  5719  02FD  0084               	movwf	fsr0
  5720  02FE  118A  274E  118A   	fcall	stringdir
  5721  0301  00B2               	movwf	0+(?i1_ChangeLED)+01h
  5722  0302  118A  274E  118A   	fcall	stringdir
  5723  0305  00B3               	movwf	1+(?i1_ChangeLED)+01h
  5724  0306  0856               	movf	(i1Mode1@j),w
  5725  0307  00CF               	movwf	(??i1_Mode1+2)+0
  5726  0308  074F               	addwf	(??i1_Mode1+2)+0,w
  5727  0309  3E02               	addlw	02h
  5728  030A  3E2B               	addlw	low((_led0Colors-__stringbase))
  5729  030B  0084               	movwf	fsr0
  5730  030C  118A  274E  118A   	fcall	stringdir
  5731  030F  00B4               	movwf	0+(?i1_ChangeLED)+03h
  5732  0310  118A  274E  118A   	fcall	stringdir
  5733  0313  00B5               	movwf	1+(?i1_ChangeLED)+03h
  5734  0314  0856               	movf	(i1Mode1@j),w
  5735  0315  00D0               	movwf	(??i1_Mode1+3)+0
  5736  0316  0750               	addwf	(??i1_Mode1+3)+0,w
  5737  0317  3E3B               	addlw	low((_led1Colors-__stringbase))
  5738  0318  0084               	movwf	fsr0
  5739  0319  118A  274E  118A   	fcall	stringdir
  5740  031C  00B6               	movwf	0+(?i1_ChangeLED)+05h
  5741  031D  118A  274E  118A   	fcall	stringdir
  5742  0320  00B7               	movwf	1+(?i1_ChangeLED)+05h
  5743  0321  0856               	movf	(i1Mode1@j),w
  5744  0322  00D1               	movwf	(??i1_Mode1+4)+0
  5745  0323  0751               	addwf	(??i1_Mode1+4)+0,w
  5746  0324  3E02               	addlw	02h
  5747  0325  3E3B               	addlw	low((_led1Colors-__stringbase))
  5748  0326  0084               	movwf	fsr0
  5749  0327  118A  274E  118A   	fcall	stringdir
  5750  032A  00B8               	movwf	0+(?i1_ChangeLED)+07h
  5751  032B  118A  274E  118A   	fcall	stringdir
  5752  032E  00B9               	movwf	1+(?i1_ChangeLED)+07h
  5753  032F  0856               	movf	(i1Mode1@j),w
  5754  0330  00D2               	movwf	(??i1_Mode1+5)+0
  5755  0331  0752               	addwf	(??i1_Mode1+5)+0,w
  5756  0332  3E4B               	addlw	low((_led2Colors-__stringbase))
  5757  0333  0084               	movwf	fsr0
  5758  0334  118A  274E  118A   	fcall	stringdir
  5759  0337  00BA               	movwf	0+(?i1_ChangeLED)+09h
  5760  0338  118A  274E  118A   	fcall	stringdir
  5761  033B  00BB               	movwf	1+(?i1_ChangeLED)+09h
  5762  033C  0856               	movf	(i1Mode1@j),w
  5763  033D  00D3               	movwf	(??i1_Mode1+6)+0
  5764  033E  0753               	addwf	(??i1_Mode1+6)+0,w
  5765  033F  3E02               	addlw	02h
  5766  0340  3E4B               	addlw	low((_led2Colors-__stringbase))
  5767  0341  0084               	movwf	fsr0
  5768  0342  118A  274E  118A   	fcall	stringdir
  5769  0345  00BC               	movwf	0+(?i1_ChangeLED)+0Bh
  5770  0346  118A  274E  118A   	fcall	stringdir
  5771  0349  00BD               	movwf	1+(?i1_ChangeLED)+0Bh
  5772  034A  301C               	movlw	low(01Ch)
  5773  034B  00BE               	movwf	0+(?i1_ChangeLED)+0Dh
  5774  034C  3000               	movlw	high(01Ch)
  5775  034D  00BF               	movwf	(0+(?i1_ChangeLED)+0Dh)+1
  5776  034E  3007               	movlw	(7)&0ffh
  5777  034F  118A  25C8  118A   	fcall	i1_ChangeLED
  5778                           	line	112
  5779                           	
  5780  0352                     i1l4461:	
  5781  0352  3001               	movlw	low(01h)
  5782  0353  1283               	bcf	status, 5	;RP0=0, select bank0
  5783  0354  1303               	bcf	status, 6	;RP1=0, select bank0
  5784  0355  07D6               	addwf	(i1Mode1@j),f
  5785  0356  1803               	skipnc
  5786  0357  0AD7               	incf	(i1Mode1@j+1),f
  5787  0358  3000               	movlw	high(01h)
  5788  0359  07D7               	addwf	(i1Mode1@j+1),f
  5789                           	
  5790  035A                     i1l4463:	
  5791  035A  0857               	movf	(i1Mode1@j+1),w
  5792  035B  3A80               	xorlw	80h
  5793  035C  00FF               	movwf	btemp+1
  5794  035D  3080               	movlw	(high(07h))^80h
  5795  035E  027F               	subwf	btemp+1,w
  5796  035F  1D03               	skipz
  5797  0360  2B63               	goto	u335_25
  5798  0361  3007               	movlw	low(07h)
  5799  0362  0256               	subwf	(i1Mode1@j),w
  5800  0363                     u335_25:
  5801                           
  5802  0363  1C03               	skipc
  5803  0364  2B66               	goto	u335_21
  5804  0365  2B67               	goto	u335_20
  5805  0366                     u335_21:
  5806  0366  2ABB               	goto	i1l4449
  5807  0367                     u335_20:
  5808  0367  2B68               	goto	i1l785
  5809                           	
  5810  0368                     i1l782:	
  5811                           	line	123
  5812                           	
  5813  0368                     i1l785:	
  5814  0368  0008               	return
  5815                           	opt stack 0
  5816                           GLOBAL	__end_ofi1_Mode1
  5817  0369                     	__end_ofi1_Mode1:
  5818 ;; =============== function i1_Mode1 ends ============
  5819                           
  5820                           	signat	i1_Mode1,88
  5821                           	global	i1_rand
  5822                           psect	text673,local,class=CODE,delta=2
  5823                           global __ptext673
  5824  0D50                     __ptext673:
  5825                           
  5826 ;; *************** function i1_rand *****************
  5827 ;; Defined at:
  5828 ;;		line 14 in file "C:\Program Files (x86)\HI-TECH Software\PICC\9.83\sources\rand.c"
  5829 ;; Parameters:    Size  Location     Type
  5830 ;;		None
  5831 ;; Auto vars:     Size  Location     Type
  5832 ;;		None
  5833 ;; Return value:  Size  Location     Type
  5834 ;;                  2    6[BANK0 ] int 
  5835 ;; Registers used:
  5836 ;;		wreg, status,2, status,0, pclath, cstack
  5837 ;; Tracked objects:
  5838 ;;		On entry : 0/0
  5839 ;;		On exit  : 0/0
  5840 ;;		Unchanged: 0/0
  5841 ;; Data sizes:     COMMON   BANK0   BANK1   BANK2
  5842 ;;      Params:         0       2       0       0
  5843 ;;      Locals:         0       0       0       0
  5844 ;;      Temps:          0       9       0       0
  5845 ;;      Totals:         0      11       0       0
  5846 ;;Total ram usage:       11 bytes
  5847 ;; Hardware stack levels used:    1
  5848 ;; Hardware stack levels required when called:    1
  5849 ;; This function calls:
  5850 ;;		i1_srand
  5851 ;;		i1___lmul
  5852 ;; This function is called by:
  5853 ;;		i1_Mode3
  5854 ;;		i1_Mode5
  5855 ;;		i1_Mode6
  5856 ;;		i1_main
  5857 ;; This function uses a non-reentrant model
  5858 ;;
  5859                           psect	text673
  5860                           	file	"C:\Program Files (x86)\HI-TECH Software\PICC\9.83\sources\rand.c"
  5861                           	line	14
  5862                           	global	__size_ofi1_rand
  5863  007E                     	__size_ofi1_rand	equ	__end_ofi1_rand-i1_rand
  5864                           	
  5865  0D50                     i1_rand:	
  5866                           	opt	stack 0
  5867                           ; Regs used in i1_rand: [wreg+status,2+status,0+pclath+cstack]
  5868                           	line	15
  5869                           	
  5870  0D50                     i1l4553:	
  5871  0D50  1683               	bsf	status, 5	;RP0=1, select bank1
  5872  0D51  1303               	bcf	status, 6	;RP1=0, select bank1
  5873  0D52  08EF               	movf	(_randf)^080h,f
  5874  0D53  1D03               	skipz
  5875  0D54  2D56               	goto	u343_21
  5876  0D55  2D57               	goto	u343_20
  5877  0D56                     u343_21:
  5878  0D56  2D5E               	goto	i1l1697
  5879  0D57                     u343_20:
  5880                           	line	16
  5881                           	
  5882  0D57                     i1l4555:	
  5883  0D57  3001               	movlw	low(01h)
  5884  0D58  00F0               	movwf	(?i1_srand)
  5885  0D59  3000               	movlw	high(01h)
  5886  0D5A  00F1               	movwf	((?i1_srand))+1
  5887  0D5B  158A  21EB  158A   	fcall	i1_srand
  5888                           	
  5889  0D5E                     i1l1697:	
  5890                           	line	17
  5891  0D5E  3039               	movlw	039h
  5892  0D5F  1283               	bcf	status, 5	;RP0=0, select bank0
  5893  0D60  1303               	bcf	status, 6	;RP1=0, select bank0
  5894  0D61  00A8               	movwf	((??i1_rand+0)+0)
  5895  0D62  3030               	movlw	030h
  5896  0D63  00A9               	movwf	((??i1_rand+0)+0+1)
  5897  0D64  3000               	movlw	0
  5898  0D65  00AA               	movwf	((??i1_rand+0)+0+2)
  5899  0D66  3000               	movlw	0
  5900  0D67  00AB               	movwf	((??i1_rand+0)+0+3)
  5901  0D68  1683               	bsf	status, 5	;RP0=1, select bank1
  5902  0D69  1303               	bcf	status, 6	;RP1=0, select bank1
  5903  0D6A  086E               	movf	(_randx+3)^080h,w
  5904  0D6B  00F3               	movwf	(?i1___lmul+3)
  5905  0D6C  086D               	movf	(_randx+2)^080h,w
  5906  0D6D  00F2               	movwf	(?i1___lmul+2)
  5907  0D6E  086C               	movf	(_randx+1)^080h,w
  5908  0D6F  00F1               	movwf	(?i1___lmul+1)
  5909  0D70  086B               	movf	(_randx)^080h,w
  5910  0D71  00F0               	movwf	(?i1___lmul)
  5911                           
  5912  0D72  3041               	movlw	041h
  5913  0D73  00F7               	movwf	3+(?i1___lmul)+04h
  5914  0D74  30C6               	movlw	0C6h
  5915  0D75  00F6               	movwf	2+(?i1___lmul)+04h
  5916  0D76  304E               	movlw	04Eh
  5917  0D77  00F5               	movwf	1+(?i1___lmul)+04h
  5918  0D78  306D               	movlw	06Dh
  5919  0D79  00F4               	movwf	0+(?i1___lmul)+04h
  5920                           
  5921  0D7A  158A  22B0  158A   	fcall	i1___lmul
  5922  0D7D  0870               	movf	(0+(?i1___lmul)),w
  5923  0D7E  1283               	bcf	status, 5	;RP0=0, select bank0
  5924  0D7F  1303               	bcf	status, 6	;RP1=0, select bank0
  5925  0D80  07A8               	addwf	(??i1_rand+0)+0,f
  5926  0D81  0871               	movf	(1+(?i1___lmul)),w
  5927  0D82  1803               	skipnc
  5928  0D83  0F71               	incfsz	(1+(?i1___lmul)),w
  5929  0D84  2D86               	goto	u344_20
  5930  0D85  2D87               	goto	u344_21
  5931  0D86                     u344_20:
  5932  0D86  07A9               	addwf	(??i1_rand+0)+1,f
  5933  0D87                     u344_21:
  5934  0D87  0872               	movf	(2+(?i1___lmul)),w
  5935  0D88  1803               	skipnc
  5936  0D89  0F72               	incfsz	(2+(?i1___lmul)),w
  5937  0D8A  2D8C               	goto	u344_22
  5938  0D8B  2D8D               	goto	u344_23
  5939  0D8C                     u344_22:
  5940  0D8C  07AA               	addwf	(??i1_rand+0)+2,f
  5941  0D8D                     u344_23:
  5942  0D8D  0873               	movf	(3+(?i1___lmul)),w
  5943  0D8E  1803               	skipnc
  5944  0D8F  0A73               	incf	(3+(?i1___lmul)),w
  5945  0D90  07AB               	addwf	(??i1_rand+0)+3,f
  5946  0D91  082B               	movf	3+(??i1_rand+0)+0,w
  5947  0D92  1683               	bsf	status, 5	;RP0=1, select bank1
  5948  0D93  1303               	bcf	status, 6	;RP1=0, select bank1
  5949  0D94  00EE               	movwf	(_randx+3)^080h
  5950  0D95  1283               	bcf	status, 5	;RP0=0, select bank0
  5951  0D96  1303               	bcf	status, 6	;RP1=0, select bank0
  5952  0D97  082A               	movf	2+(??i1_rand+0)+0,w
  5953  0D98  1683               	bsf	status, 5	;RP0=1, select bank1
  5954  0D99  1303               	bcf	status, 6	;RP1=0, select bank1
  5955  0D9A  00ED               	movwf	(_randx+2)^080h
  5956  0D9B  1283               	bcf	status, 5	;RP0=0, select bank0
  5957  0D9C  1303               	bcf	status, 6	;RP1=0, select bank0
  5958  0D9D  0829               	movf	1+(??i1_rand+0)+0,w
  5959  0D9E  1683               	bsf	status, 5	;RP0=1, select bank1
  5960  0D9F  1303               	bcf	status, 6	;RP1=0, select bank1
  5961  0DA0  00EC               	movwf	(_randx+1)^080h
  5962  0DA1  1283               	bcf	status, 5	;RP0=0, select bank0
  5963  0DA2  1303               	bcf	status, 6	;RP1=0, select bank0
  5964  0DA3  0828               	movf	0+(??i1_rand+0)+0,w
  5965  0DA4  1683               	bsf	status, 5	;RP0=1, select bank1
  5966  0DA5  1303               	bcf	status, 6	;RP1=0, select bank1
  5967  0DA6  00EB               	movwf	(_randx)^080h
  5968                           
  5969  0DA7  086B               	movf	((_randx)^080h),w
  5970  0DA8  1283               	bcf	status, 5	;RP0=0, select bank0
  5971  0DA9  1303               	bcf	status, 6	;RP1=0, select bank0
  5972  0DAA  00AC               	movwf	(??i1_rand+4)+0
  5973  0DAB  1683               	bsf	status, 5	;RP0=1, select bank1
  5974  0DAC  1303               	bcf	status, 6	;RP1=0, select bank1
  5975  0DAD  086C               	movf	((_randx+1)^080h),w
  5976  0DAE  1283               	bcf	status, 5	;RP0=0, select bank0
  5977  0DAF  1303               	bcf	status, 6	;RP1=0, select bank0
  5978  0DB0  00AD               	movwf	((??i1_rand+4)+0+1)
  5979  0DB1  1683               	bsf	status, 5	;RP0=1, select bank1
  5980  0DB2  1303               	bcf	status, 6	;RP1=0, select bank1
  5981  0DB3  086D               	movf	((_randx+2)^080h),w
  5982  0DB4  1283               	bcf	status, 5	;RP0=0, select bank0
  5983  0DB5  1303               	bcf	status, 6	;RP1=0, select bank0
  5984  0DB6  00AE               	movwf	((??i1_rand+4)+0+2)
  5985  0DB7  1683               	bsf	status, 5	;RP0=1, select bank1
  5986  0DB8  1303               	bcf	status, 6	;RP1=0, select bank1
  5987  0DB9  086E               	movf	((_randx+3)^080h),w
  5988  0DBA  1283               	bcf	status, 5	;RP0=0, select bank0
  5989  0DBB  1303               	bcf	status, 6	;RP1=0, select bank0
  5990  0DBC  00AF               	movwf	((??i1_rand+4)+0+3)
  5991  0DBD  3010               	movlw	010h
  5992  0DBE  00B0               	movwf	(??i1_rand+8)+0
  5993  0DBF                     u345_25:
  5994  0DBF  0D2F               	rlf	(??i1_rand+4)+3,w
  5995  0DC0  0CAF               	rrf	(??i1_rand+4)+3,f
  5996  0DC1  0CAE               	rrf	(??i1_rand+4)+2,f
  5997  0DC2  0CAD               	rrf	(??i1_rand+4)+1,f
  5998  0DC3  0CAC               	rrf	(??i1_rand+4)+0,f
  5999  0DC4                     u345_20:
  6000  0DC4  0BB0               	decfsz	(??i1_rand+8)+0,f
  6001  0DC5  2DBF               	goto	u345_25
  6002  0DC6  30FF               	movlw	low(07FFFh)
  6003  0DC7  052C               	andwf	0+(??i1_rand+4)+0,w
  6004  0DC8  00A6               	movwf	(?i1_rand)
  6005  0DC9  307F               	movlw	high(07FFFh)
  6006  0DCA  052D               	andwf	1+(??i1_rand+4)+0,w
  6007  0DCB  00A7               	movwf	1+(?i1_rand)
  6008  0DCC  2DCD               	goto	i1l1698
  6009                           	
  6010  0DCD                     i1l4557:	
  6011                           	line	18
  6012                           	
  6013  0DCD                     i1l1698:	
  6014  0DCD  0008               	return
  6015                           	opt stack 0
  6016                           GLOBAL	__end_ofi1_rand
  6017  0DCE                     	__end_ofi1_rand:
  6018 ;; =============== function i1_rand ends ============
  6019                           
  6020                           	signat	i1_rand,90
  6021                           	global	i1_Mode4
  6022                           psect	text674,local,class=CODE,delta=2
  6023                           global __ptext674
  6024  0BA6                     __ptext674:
  6025                           
  6026 ;; *************** function i1_Mode4 *****************
  6027 ;; Defined at:
  6028 ;;		line 158 in file "main.c"
  6029 ;; Parameters:    Size  Location     Type
  6030 ;;		None
  6031 ;; Auto vars:     Size  Location     Type
  6032 ;;		None
  6033 ;; Return value:  Size  Location     Type
  6034 ;;		None               void
  6035 ;; Registers used:
  6036 ;;		wreg, fsr0l, fsr0h, status,2, status,0, pclath
  6037 ;; Tracked objects:
  6038 ;;		On entry : 0/0
  6039 ;;		On exit  : 0/0
  6040 ;;		Unchanged: 0/0
  6041 ;; Data sizes:     COMMON   BANK0   BANK1   BANK2
  6042 ;;      Params:         0       0       0       0
  6043 ;;      Locals:         0       0       0       0
  6044 ;;      Temps:          3       0       0       0
  6045 ;;      Totals:         3       0       0       0
  6046 ;;Total ram usage:        3 bytes
  6047 ;; Hardware stack levels used:    2
  6048 ;; This function calls:
  6049 ;;		Nothing
  6050 ;; This function is called by:
  6051 ;;		i1_main
  6052 ;; This function uses a non-reentrant model
  6053 ;;
  6054                           psect	text674
  6055                           	file	"main.c"
  6056                           	line	158
  6057                           	global	__size_ofi1_Mode4
  6058  0067                     	__size_ofi1_Mode4	equ	__end_ofi1_Mode4-i1_Mode4
  6059                           	
  6060  0BA6                     i1_Mode4:	
  6061                           	opt	stack 1
  6062                           ; Regs used in i1_Mode4: [wreg-fsr0h+status,2+status,0+pclath]
  6063                           	line	160
  6064                           	
  6065  0BA6                     i1l4479:	
  6066                           ;main.c: 160: PORTC=white0 | red1;
  6067  0BA6  3075               	movlw	(_red1-__stringbase)
  6068  0BA7  0084               	movwf	fsr0
  6069  0BA8  118A  274E  158A   	fcall	stringdir
  6070  0BAB  00F0               	movwf	(??i1_Mode4+0)+0
  6071  0BAC  3079               	movlw	(_white0-__stringbase)
  6072  0BAD  0084               	movwf	fsr0
  6073  0BAE  118A  274E  158A   	fcall	stringdir
  6074  0BB1  0470               	iorwf	(??i1_Mode4+0)+0,w
  6075  0BB2  1283               	bcf	status, 5	;RP0=0, select bank0
  6076  0BB3  1303               	bcf	status, 6	;RP1=0, select bank0
  6077  0BB4  0087               	movwf	(7)	;volatile
  6078                           	line	161
  6079                           	
  6080  0BB5                     i1l4481:	
  6081                           ;main.c: 161: PORTB=white2;
  6082  0BB5  307D               	movlw	(_white2-__stringbase)
  6083  0BB6  0084               	movwf	fsr0
  6084  0BB7  118A  274E  158A   	fcall	stringdir
  6085  0BBA  0086               	movwf	(6)	;volatile
  6086                           	line	162
  6087                           	
  6088  0BBB                     i1l4483:	
  6089                           ;main.c: 162: _delay((unsigned long)((500)*(4000000/4000.0)));
  6090                           	opt asmopt_off
  6091  0BBB  3003               movlw  3
  6092  0BBC  00F2               movwf	((??i1_Mode4+0)+0+2),f
  6093  0BBD  308A               movlw	138
  6094  0BBE  00F1               movwf	((??i1_Mode4+0)+0+1),f
  6095  0BBF  3056               	movlw	86
  6096  0BC0  00F0               movwf	((??i1_Mode4+0)+0),f
  6097  0BC1                     u388_27:
  6098  0BC1  0BF0               	decfsz	((??i1_Mode4+0)+0),f
  6099  0BC2  2BC1               	goto	u388_27
  6100  0BC3  0BF1               	decfsz	((??i1_Mode4+0)+0+1),f
  6101  0BC4  2BC1               	goto	u388_27
  6102  0BC5  0BF2               	decfsz	((??i1_Mode4+0)+0+2),f
  6103  0BC6  2BC1               	goto	u388_27
  6104  0BC7  2BC8               	nop2
  6105                           opt asmopt_on
  6106                           
  6107                           	line	164
  6108                           	
  6109  0BC8                     i1l4485:	
  6110                           ;main.c: 164: PORTC=red0 | green1;
  6111  0BC8  3069               	movlw	(_green1-__stringbase)
  6112  0BC9  0084               	movwf	fsr0
  6113  0BCA  118A  274E  158A   	fcall	stringdir
  6114  0BCD  00F0               	movwf	(??i1_Mode4+0)+0
  6115  0BCE  3073               	movlw	(_red0-__stringbase)
  6116  0BCF  0084               	movwf	fsr0
  6117  0BD0  118A  274E  158A   	fcall	stringdir
  6118  0BD3  0470               	iorwf	(??i1_Mode4+0)+0,w
  6119  0BD4  1283               	bcf	status, 5	;RP0=0, select bank0
  6120  0BD5  1303               	bcf	status, 6	;RP1=0, select bank0
  6121  0BD6  0087               	movwf	(7)	;volatile
  6122                           	line	165
  6123                           	
  6124  0BD7                     i1l4487:	
  6125                           ;main.c: 165: PORTB=red2;
  6126  0BD7  3077               	movlw	(_red2-__stringbase)
  6127  0BD8  0084               	movwf	fsr0
  6128  0BD9  118A  274E  158A   	fcall	stringdir
  6129  0BDC  0086               	movwf	(6)	;volatile
  6130                           	line	166
  6131                           ;main.c: 166: _delay((unsigned long)((500)*(4000000/4000.0)));
  6132                           	opt asmopt_off
  6133  0BDD  3003               movlw  3
  6134  0BDE  00F2               movwf	((??i1_Mode4+0)+0+2),f
  6135  0BDF  308A               movlw	138
  6136  0BE0  00F1               movwf	((??i1_Mode4+0)+0+1),f
  6137  0BE1  3056               	movlw	86
  6138  0BE2  00F0               movwf	((??i1_Mode4+0)+0),f
  6139  0BE3                     u389_27:
  6140  0BE3  0BF0               	decfsz	((??i1_Mode4+0)+0),f
  6141  0BE4  2BE3               	goto	u389_27
  6142  0BE5  0BF1               	decfsz	((??i1_Mode4+0)+0+1),f
  6143  0BE6  2BE3               	goto	u389_27
  6144  0BE7  0BF2               	decfsz	((??i1_Mode4+0)+0+2),f
  6145  0BE8  2BE3               	goto	u389_27
  6146  0BE9  2BEA               	nop2
  6147                           opt asmopt_on
  6148                           
  6149                           	line	168
  6150                           	
  6151  0BEA                     i1l4489:	
  6152                           ;main.c: 168: PORTC=green0 | white1;
  6153  0BEA  307B               	movlw	(_white1-__stringbase)
  6154  0BEB  0084               	movwf	fsr0
  6155  0BEC  118A  274E  158A   	fcall	stringdir
  6156  0BEF  00F0               	movwf	(??i1_Mode4+0)+0
  6157  0BF0  3067               	movlw	(_green0-__stringbase)
  6158  0BF1  0084               	movwf	fsr0
  6159  0BF2  118A  274E  158A   	fcall	stringdir
  6160  0BF5  0470               	iorwf	(??i1_Mode4+0)+0,w
  6161  0BF6  1283               	bcf	status, 5	;RP0=0, select bank0
  6162  0BF7  1303               	bcf	status, 6	;RP1=0, select bank0
  6163  0BF8  0087               	movwf	(7)	;volatile
  6164                           	line	169
  6165                           	
  6166  0BF9                     i1l4491:	
  6167                           ;main.c: 169: PORTB=green2;
  6168  0BF9  306B               	movlw	(_green2-__stringbase)
  6169  0BFA  0084               	movwf	fsr0
  6170  0BFB  118A  274E  158A   	fcall	stringdir
  6171  0BFE  0086               	movwf	(6)	;volatile
  6172                           	line	170
  6173                           	
  6174  0BFF                     i1l4493:	
  6175                           ;main.c: 170: _delay((unsigned long)((500)*(4000000/4000.0)));
  6176                           	opt asmopt_off
  6177  0BFF  3003               movlw  3
  6178  0C00  00F2               movwf	((??i1_Mode4+0)+0+2),f
  6179  0C01  308A               movlw	138
  6180  0C02  00F1               movwf	((??i1_Mode4+0)+0+1),f
  6181  0C03  3056               	movlw	86
  6182  0C04  00F0               movwf	((??i1_Mode4+0)+0),f
  6183  0C05                     u390_27:
  6184  0C05  0BF0               	decfsz	((??i1_Mode4+0)+0),f
  6185  0C06  2C05               	goto	u390_27
  6186  0C07  0BF1               	decfsz	((??i1_Mode4+0)+0+1),f
  6187  0C08  2C05               	goto	u390_27
  6188  0C09  0BF2               	decfsz	((??i1_Mode4+0)+0+2),f
  6189  0C0A  2C05               	goto	u390_27
  6190  0C0B  2C0C               	nop2
  6191                           opt asmopt_on
  6192                           
  6193                           	line	171
  6194                           	
  6195  0C0C                     i1l794:	
  6196  0C0C  0008               	return
  6197                           	opt stack 0
  6198                           GLOBAL	__end_ofi1_Mode4
  6199  0C0D                     	__end_ofi1_Mode4:
  6200 ;; =============== function i1_Mode4 ends ============
  6201                           
  6202                           	signat	i1_Mode4,88
  6203                           	global	i1_ChangeLED
  6204                           psect	text675,local,class=CODE,delta=2
  6205                           global __ptext675
  6206  05C8                     __ptext675:
  6207                           
  6208 ;; *************** function i1_ChangeLED *****************
  6209 ;; Defined at:
  6210 ;;		line 72 in file "main.c"
  6211 ;; Parameters:    Size  Location     Type
  6212 ;;  ChangeLED       1    wreg     PTR volatile unsigned ch
  6213 ;;		 -> PORTC(1), 
  6214 ;;  ChangeLED       1   17[BANK0 ] PTR volatile unsigned ch
  6215 ;;		 -> PORTB(1), 
  6216 ;;  ChangeLED       2   18[BANK0 ] int 
  6217 ;;  ChangeLED       2   20[BANK0 ] int 
  6218 ;;  ChangeLED       2   22[BANK0 ] int 
  6219 ;;  ChangeLED       2   24[BANK0 ] int 
  6220 ;;  ChangeLED       2   26[BANK0 ] int 
  6221 ;;  ChangeLED       2   28[BANK0 ] int 
  6222 ;;  ChangeLED       2   30[BANK0 ] int 
  6223 ;; Auto vars:     Size  Location     Type
  6224 ;;  ChangeLED       1   42[BANK0 ] PTR volatile unsigned ch
  6225 ;;		 -> PORTC(1), 
  6226 ;;  ChangeLED       2   43[BANK0 ] int 
  6227 ;;  ChangeLED       2   40[BANK0 ] int 
  6228 ;;  ChangeLED       2   38[BANK0 ] int 
  6229 ;;  ChangeLED       2   36[BANK0 ] int 
  6230 ;; Return value:  Size  Location     Type
  6231 ;;		None               void
  6232 ;; Registers used:
  6233 ;;		wreg, fsr0l, fsr0h, status,2, status,0, btemp+1, pclath
  6234 ;; Tracked objects:
  6235 ;;		On entry : 0/0
  6236 ;;		On exit  : 0/0
  6237 ;;		Unchanged: 0/0
  6238 ;; Data sizes:     COMMON   BANK0   BANK1   BANK2
  6239 ;;      Params:         0      15       0       0
  6240 ;;      Locals:         0       9       0       0
  6241 ;;      Temps:          0       4       0       0
  6242 ;;      Totals:         0      28       0       0
  6243 ;;Total ram usage:       28 bytes
  6244 ;; Hardware stack levels used:    2
  6245 ;; This function calls:
  6246 ;;		Nothing
  6247 ;; This function is called by:
  6248 ;;		i1_Mode1
  6249 ;;		i1_Mode3
  6250 ;;		i1_Mode5
  6251 ;;		i1_Mode6
  6252 ;; This function uses a non-reentrant model
  6253 ;;
  6254                           psect	text675
  6255                           	file	"main.c"
  6256                           	line	72
  6257                           	global	__size_ofi1_ChangeLED
  6258  00C5                     	__size_ofi1_ChangeLED	equ	__end_ofi1_ChangeLED-i1_ChangeLED
  6259                           	
  6260  05C8                     i1_ChangeLED:	
  6261 ;; using string table level
  6262                           	opt	stack 1
  6263                           ; Regs used in i1_ChangeLED: [wreg-fsr0h+status,2+status,0+btemp+1+pclath]
  6264                           ;i1ChangeLED@port stored from wreg
  6265                           	line	75
  6266  05C8  1283               	bcf	status, 5	;RP0=0, select bank0
  6267  05C9  1303               	bcf	status, 6	;RP1=0, select bank0
  6268  05CA  00CA               	movwf	(i1ChangeLED@port)
  6269                           	
  6270  05CB                     i1l4405:	
  6271                           ;main.c: 75: for(int k = 0; k < 21; k++)
  6272  05CB  01CB               	clrf	(i1ChangeLED@k)
  6273  05CC  01CC               	clrf	(i1ChangeLED@k+1)
  6274                           	
  6275  05CD                     i1l4407:	
  6276  05CD  084C               	movf	(i1ChangeLED@k+1),w
  6277  05CE  3A80               	xorlw	80h
  6278  05CF  00FF               	movwf	btemp+1
  6279  05D0  3080               	movlw	(high(015h))^80h
  6280  05D1  027F               	subwf	btemp+1,w
  6281  05D2  1D03               	skipz
  6282  05D3  2DD6               	goto	u327_25
  6283  05D4  3015               	movlw	low(015h)
  6284  05D5  024B               	subwf	(i1ChangeLED@k),w
  6285  05D6                     u327_25:
  6286                           
  6287  05D6  1C03               	skipc
  6288  05D7  2DD9               	goto	u327_21
  6289  05D8  2DDA               	goto	u327_20
  6290  05D9                     u327_21:
  6291  05D9  2DDC               	goto	i1l4411
  6292  05DA                     u327_20:
  6293  05DA  2E8C               	goto	i1l778
  6294                           	
  6295  05DB                     i1l4409:	
  6296  05DB  2E8C               	goto	i1l778
  6297                           	line	76
  6298                           	
  6299  05DC                     i1l767:	
  6300                           	line	78
  6301                           	
  6302  05DC                     i1l4411:	
  6303                           ;main.c: 76: {
  6304                           ;main.c: 78: for(int j = 0; j < loopLimit; j++)
  6305  05DC  1283               	bcf	status, 5	;RP0=0, select bank0
  6306  05DD  1303               	bcf	status, 6	;RP1=0, select bank0
  6307  05DE  01C4               	clrf	(i1ChangeLED@j)
  6308  05DF  01C5               	clrf	(i1ChangeLED@j+1)
  6309  05E0  2E67               	goto	i1l769
  6310                           	line	79
  6311                           	
  6312  05E1                     i1l770:	
  6313                           	line	80
  6314                           	
  6315  05E1                     i1l4413:	
  6316                           ;main.c: 79: {
  6317                           ;main.c: 80: *port = outColor | outColor2;
  6318  05E1  1283               	bcf	status, 5	;RP0=0, select bank0
  6319  05E2  1303               	bcf	status, 6	;RP1=0, select bank0
  6320  05E3  0832               	movf	(i1ChangeLED@outColor),w
  6321  05E4  0436               	iorwf	(i1ChangeLED@outColor2),w
  6322  05E5  00C0               	movwf	(??i1_ChangeLED+0)+0
  6323  05E6  084A               	movf	(i1ChangeLED@port),w
  6324  05E7  0084               	movwf	fsr0
  6325  05E8  0840               	movf	(??i1_ChangeLED+0)+0,w
  6326  05E9  1383               	bcf	status, 7	;select IRP bank0
  6327  05EA  0080               	movwf	indf
  6328                           	line	81
  6329                           	
  6330  05EB                     i1l4415:	
  6331                           ;main.c: 81: *port2 = outColor3;
  6332  05EB  083A               	movf	(i1ChangeLED@outColor3),w
  6333  05EC  00C0               	movwf	(??i1_ChangeLED+0)+0
  6334  05ED  0831               	movf	(i1ChangeLED@port2),w
  6335  05EE  0084               	movwf	fsr0
  6336  05EF  0840               	movf	(??i1_ChangeLED+0)+0,w
  6337  05F0  0080               	movwf	indf
  6338                           	line	84
  6339                           	
  6340  05F1                     i1l4417:	
  6341                           ;main.c: 84: for(int i = 0; i < (timesArray[20-k]); i++)
  6342  05F1  01C6               	clrf	(i1ChangeLED@i)
  6343  05F2  01C7               	clrf	(i1ChangeLED@i+1)
  6344  05F3  2E03               	goto	i1l4421
  6345                           	line	85
  6346                           	
  6347  05F4                     i1l772:	
  6348                           	line	86
  6349                           	
  6350  05F4                     i1l4419:	
  6351                           ;main.c: 85: {
  6352                           ;main.c: 86: _delay((unsigned long)((10)*(4000000/4000000.0)));
  6353                           	opt asmopt_off
  6354  05F4  3003               movlw	3
  6355  05F5  1283               	bcf	status, 5	;RP0=0, select bank0
  6356  05F6  1303               	bcf	status, 6	;RP1=0, select bank0
  6357  05F7  00C0               movwf	(??i1_ChangeLED+0)+0,f
  6358  05F8                     u391_27:
  6359  05F8  0BC0               decfsz	(??i1_ChangeLED+0)+0,f
  6360  05F9  2DF8               	goto	u391_27
  6361                           opt asmopt_on
  6362                           
  6363                           	line	84
  6364  05FA  3001               	movlw	low(01h)
  6365  05FB  1283               	bcf	status, 5	;RP0=0, select bank0
  6366  05FC  1303               	bcf	status, 6	;RP1=0, select bank0
  6367  05FD  07C6               	addwf	(i1ChangeLED@i),f
  6368  05FE  1803               	skipnc
  6369  05FF  0AC7               	incf	(i1ChangeLED@i+1),f
  6370  0600  3000               	movlw	high(01h)
  6371  0601  07C7               	addwf	(i1ChangeLED@i+1),f
  6372  0602  2E03               	goto	i1l4421
  6373                           	
  6374  0603                     i1l771:	
  6375                           	
  6376  0603                     i1l4421:	
  6377  0603  034B               	decf	(i1ChangeLED@k),w
  6378  0604  3AFF               	xorlw	0ffh
  6379  0605  00C0               	movwf	(??i1_ChangeLED+0)+0
  6380  0606  0740               	addwf	(??i1_ChangeLED+0)+0,w
  6381  0607  3E28               	addlw	028h
  6382  0608  3E01               	addlw	low((_timesArray-__stringbase))
  6383  0609  0084               	movwf	fsr0
  6384  060A  118A  274E  118A   	fcall	stringdir
  6385  060D  00C1               	movwf	(??i1_ChangeLED+1)+0
  6386  060E  118A  274E  118A   	fcall	stringdir
  6387  0611  00C2               	movwf	(??i1_ChangeLED+1)+0+1
  6388  0612  0847               	movf	(i1ChangeLED@i+1),w
  6389  0613  3A80               	xorlw	80h
  6390  0614  00C3               	movwf	(??i1_ChangeLED+3)+0
  6391  0615  0842               	movf	1+(??i1_ChangeLED+1)+0,w
  6392  0616  3A80               	xorlw	80h
  6393  0617  0243               	subwf	(??i1_ChangeLED+3)+0,w
  6394  0618  1D03               	skipz
  6395  0619  2E1C               	goto	u328_25
  6396  061A  0841               	movf	0+(??i1_ChangeLED+1)+0,w
  6397  061B  0246               	subwf	(i1ChangeLED@i),w
  6398  061C                     u328_25:
  6399                           
  6400  061C  1C03               	skipc
  6401  061D  2E1F               	goto	u328_21
  6402  061E  2E20               	goto	u328_20
  6403  061F                     u328_21:
  6404  061F  2DF4               	goto	i1l4419
  6405  0620                     u328_20:
  6406  0620  2E21               	goto	i1l4423
  6407                           	
  6408  0621                     i1l773:	
  6409                           	line	89
  6410                           	
  6411  0621                     i1l4423:	
  6412                           ;main.c: 87: }
  6413                           ;main.c: 89: *port = inColor | inColor2;
  6414  0621  1283               	bcf	status, 5	;RP0=0, select bank0
  6415  0622  1303               	bcf	status, 6	;RP1=0, select bank0
  6416  0623  0834               	movf	(i1ChangeLED@inColor),w
  6417  0624  0438               	iorwf	(i1ChangeLED@inColor2),w
  6418  0625  00C0               	movwf	(??i1_ChangeLED+0)+0
  6419  0626  084A               	movf	(i1ChangeLED@port),w
  6420  0627  0084               	movwf	fsr0
  6421  0628  0840               	movf	(??i1_ChangeLED+0)+0,w
  6422  0629  1383               	bcf	status, 7	;select IRP bank0
  6423  062A  0080               	movwf	indf
  6424                           	line	90
  6425                           	
  6426  062B                     i1l4425:	
  6427                           ;main.c: 90: *port2 = inColor3;
  6428  062B  083C               	movf	(i1ChangeLED@inColor3),w
  6429  062C  00C0               	movwf	(??i1_ChangeLED+0)+0
  6430  062D  0831               	movf	(i1ChangeLED@port2),w
  6431  062E  0084               	movwf	fsr0
  6432  062F  0840               	movf	(??i1_ChangeLED+0)+0,w
  6433  0630  0080               	movwf	indf
  6434                           	line	92
  6435                           	
  6436  0631                     i1l4427:	
  6437                           ;main.c: 92: for(int i = 0; i < (timesArray[k]); i++)
  6438  0631  01C8               	clrf	(i1ChangeLED@i_424)
  6439  0632  01C9               	clrf	(i1ChangeLED@i_424+1)
  6440  0633  2E43               	goto	i1l4431
  6441                           	line	93
  6442                           	
  6443  0634                     i1l775:	
  6444                           	line	94
  6445                           	
  6446  0634                     i1l4429:	
  6447                           ;main.c: 93: {
  6448                           ;main.c: 94: _delay((unsigned long)((10)*(4000000/4000000.0)));
  6449                           	opt asmopt_off
  6450  0634  3003               movlw	3
  6451  0635  1283               	bcf	status, 5	;RP0=0, select bank0
  6452  0636  1303               	bcf	status, 6	;RP1=0, select bank0
  6453  0637  00C0               movwf	(??i1_ChangeLED+0)+0,f
  6454  0638                     u392_27:
  6455  0638  0BC0               decfsz	(??i1_ChangeLED+0)+0,f
  6456  0639  2E38               	goto	u392_27
  6457                           opt asmopt_on
  6458                           
  6459                           	line	92
  6460  063A  3001               	movlw	low(01h)
  6461  063B  1283               	bcf	status, 5	;RP0=0, select bank0
  6462  063C  1303               	bcf	status, 6	;RP1=0, select bank0
  6463  063D  07C8               	addwf	(i1ChangeLED@i_424),f
  6464  063E  1803               	skipnc
  6465  063F  0AC9               	incf	(i1ChangeLED@i_424+1),f
  6466  0640  3000               	movlw	high(01h)
  6467  0641  07C9               	addwf	(i1ChangeLED@i_424+1),f
  6468  0642  2E43               	goto	i1l4431
  6469                           	
  6470  0643                     i1l774:	
  6471                           	
  6472  0643                     i1l4431:	
  6473  0643  084B               	movf	(i1ChangeLED@k),w
  6474  0644  00C0               	movwf	(??i1_ChangeLED+0)+0
  6475  0645  0740               	addwf	(??i1_ChangeLED+0)+0,w
  6476  0646  3E01               	addlw	low((_timesArray-__stringbase))
  6477  0647  0084               	movwf	fsr0
  6478  0648  118A  274E  118A   	fcall	stringdir
  6479  064B  00C1               	movwf	(??i1_ChangeLED+1)+0
  6480  064C  118A  274E  118A   	fcall	stringdir
  6481  064F  00C2               	movwf	(??i1_ChangeLED+1)+0+1
  6482  0650  0849               	movf	(i1ChangeLED@i_424+1),w
  6483  0651  3A80               	xorlw	80h
  6484  0652  00C3               	movwf	(??i1_ChangeLED+3)+0
  6485  0653  0842               	movf	1+(??i1_ChangeLED+1)+0,w
  6486  0654  3A80               	xorlw	80h
  6487  0655  0243               	subwf	(??i1_ChangeLED+3)+0,w
  6488  0656  1D03               	skipz
  6489  0657  2E5A               	goto	u329_25
  6490  0658  0841               	movf	0+(??i1_ChangeLED+1)+0,w
  6491  0659  0248               	subwf	(i1ChangeLED@i_424),w
  6492  065A                     u329_25:
  6493                           
  6494  065A  1C03               	skipc
  6495  065B  2E5D               	goto	u329_21
  6496  065C  2E5E               	goto	u329_20
  6497  065D                     u329_21:
  6498  065D  2E34               	goto	i1l4429
  6499  065E                     u329_20:
  6500  065E  2E5F               	goto	i1l4433
  6501                           	
  6502  065F                     i1l776:	
  6503                           	line	78
  6504                           	
  6505  065F                     i1l4433:	
  6506  065F  3001               	movlw	low(01h)
  6507  0660  1283               	bcf	status, 5	;RP0=0, select bank0
  6508  0661  1303               	bcf	status, 6	;RP1=0, select bank0
  6509  0662  07C4               	addwf	(i1ChangeLED@j),f
  6510  0663  1803               	skipnc
  6511  0664  0AC5               	incf	(i1ChangeLED@j+1),f
  6512  0665  3000               	movlw	high(01h)
  6513  0666  07C5               	addwf	(i1ChangeLED@j+1),f
  6514                           	
  6515  0667                     i1l769:	
  6516  0667  0845               	movf	(i1ChangeLED@j+1),w
  6517  0668  3A80               	xorlw	80h
  6518  0669  00C0               	movwf	(??i1_ChangeLED+0)+0
  6519  066A  083F               	movf	(i1ChangeLED@loopLimit+1),w
  6520  066B  3A80               	xorlw	80h
  6521  066C  0240               	subwf	(??i1_ChangeLED+0)+0,w
  6522  066D  1D03               	skipz
  6523  066E  2E71               	goto	u330_25
  6524  066F  083E               	movf	(i1ChangeLED@loopLimit),w
  6525  0670  0244               	subwf	(i1ChangeLED@j),w
  6526  0671                     u330_25:
  6527                           
  6528  0671  1C03               	skipc
  6529  0672  2E74               	goto	u330_21
  6530  0673  2E75               	goto	u330_20
  6531  0674                     u330_21:
  6532  0674  2DE1               	goto	i1l4413
  6533  0675                     u330_20:
  6534  0675  2E76               	goto	i1l4435
  6535                           	
  6536  0676                     i1l777:	
  6537                           	line	75
  6538                           	
  6539  0676                     i1l4435:	
  6540  0676  3001               	movlw	low(01h)
  6541  0677  1283               	bcf	status, 5	;RP0=0, select bank0
  6542  0678  1303               	bcf	status, 6	;RP1=0, select bank0
  6543  0679  07CB               	addwf	(i1ChangeLED@k),f
  6544  067A  1803               	skipnc
  6545  067B  0ACC               	incf	(i1ChangeLED@k+1),f
  6546  067C  3000               	movlw	high(01h)
  6547  067D  07CC               	addwf	(i1ChangeLED@k+1),f
  6548                           	
  6549  067E                     i1l4437:	
  6550  067E  084C               	movf	(i1ChangeLED@k+1),w
  6551  067F  3A80               	xorlw	80h
  6552  0680  00FF               	movwf	btemp+1
  6553  0681  3080               	movlw	(high(015h))^80h
  6554  0682  027F               	subwf	btemp+1,w
  6555  0683  1D03               	skipz
  6556  0684  2E87               	goto	u331_25
  6557  0685  3015               	movlw	low(015h)
  6558  0686  024B               	subwf	(i1ChangeLED@k),w
  6559  0687                     u331_25:
  6560                           
  6561  0687  1C03               	skipc
  6562  0688  2E8A               	goto	u331_21
  6563  0689  2E8B               	goto	u331_20
  6564  068A                     u331_21:
  6565  068A  2DDC               	goto	i1l4411
  6566  068B                     u331_20:
  6567  068B  2E8C               	goto	i1l778
  6568                           	
  6569  068C                     i1l768:	
  6570                           	line	99
  6571                           	
  6572  068C                     i1l778:	
  6573  068C  0008               	return
  6574                           	opt stack 0
  6575                           GLOBAL	__end_ofi1_ChangeLED
  6576  068D                     	__end_ofi1_ChangeLED:
  6577 ;; =============== function i1_ChangeLED ends ============
  6578                           
  6579                           	signat	i1_ChangeLED,88
  6580                           	global	i1___awmod
  6581                           psect	text676,local,class=CODE,delta=2
  6582                           global __ptext676
  6583  0C0D                     __ptext676:
  6584                           
  6585 ;; *************** function i1___awmod *****************
  6586 ;; Defined at:
  6587 ;;		line 5 in file "C:\Program Files (x86)\HI-TECH Software\PICC\9.83\sources\awmod.c"
  6588 ;; Parameters:    Size  Location     Type
  6589 ;;  __awmod         2    0[BANK0 ] int 
  6590 ;;  __awmod         2    2[BANK0 ] int 
  6591 ;; Auto vars:     Size  Location     Type
  6592 ;;  __awmod         1    5[BANK0 ] unsigned char 
  6593 ;;  __awmod         1    4[BANK0 ] unsigned char 
  6594 ;; Return value:  Size  Location     Type
  6595 ;;                  2    0[BANK0 ] int 
  6596 ;; Registers used:
  6597 ;;		wreg, status,2, status,0
  6598 ;; Tracked objects:
  6599 ;;		On entry : 0/0
  6600 ;;		On exit  : 0/0
  6601 ;;		Unchanged: 0/0
  6602 ;; Data sizes:     COMMON   BANK0   BANK1   BANK2
  6603 ;;      Params:         0       4       0       0
  6604 ;;      Locals:         0       2       0       0
  6605 ;;      Temps:          1       0       0       0
  6606 ;;      Totals:         1       6       0       0
  6607 ;;Total ram usage:        7 bytes
  6608 ;; Hardware stack levels used:    1
  6609 ;; This function calls:
  6610 ;;		Nothing
  6611 ;; This function is called by:
  6612 ;;		i1_Mode3
  6613 ;;		i1_Mode5
  6614 ;;		i1_Mode6
  6615 ;;		i1_main
  6616 ;; This function uses a non-reentrant model
  6617 ;;
  6618                           psect	text676
  6619                           	file	"C:\Program Files (x86)\HI-TECH Software\PICC\9.83\sources\awmod.c"
  6620                           	line	5
  6621                           	global	__size_ofi1___awmod
  6622  0068                     	__size_ofi1___awmod	equ	__end_ofi1___awmod-i1___awmod
  6623                           	
  6624  0C0D                     i1___awmod:	
  6625                           	opt	stack 1
  6626                           ; Regs used in i1___awmod: [wreg+status,2+status,0]
  6627                           	line	8
  6628                           	
  6629  0C0D                     i1l4573:	
  6630  0C0D  1283               	bcf	status, 5	;RP0=0, select bank0
  6631  0C0E  1303               	bcf	status, 6	;RP1=0, select bank0
  6632  0C0F  01A5               	clrf	(i1___awmod@sign)
  6633                           	line	9
  6634  0C10  1FA3               	btfss	(i1___awmod@dividend+1),7
  6635  0C11  2C13               	goto	u351_21
  6636  0C12  2C14               	goto	u351_20
  6637  0C13                     u351_21:
  6638  0C13  2C1D               	goto	i1l4577
  6639  0C14                     u351_20:
  6640                           	line	10
  6641                           	
  6642  0C14                     i1l4575:	
  6643  0C14  09A2               	comf	(i1___awmod@dividend),f
  6644  0C15  09A3               	comf	(i1___awmod@dividend+1),f
  6645  0C16  0AA2               	incf	(i1___awmod@dividend),f
  6646  0C17  1903               	skipnz
  6647  0C18  0AA3               	incf	(i1___awmod@dividend+1),f
  6648                           	line	11
  6649  0C19  01A5               	clrf	(i1___awmod@sign)
  6650  0C1A  1403               	bsf	status,0
  6651  0C1B  0DA5               	rlf	(i1___awmod@sign),f
  6652  0C1C  2C1D               	goto	i1l4577
  6653                           	line	12
  6654                           	
  6655  0C1D                     i1l1915:	
  6656                           	line	13
  6657                           	
  6658  0C1D                     i1l4577:	
  6659  0C1D  1FA1               	btfss	(i1___awmod@divisor+1),7
  6660  0C1E  2C20               	goto	u352_21
  6661  0C1F  2C21               	goto	u352_20
  6662  0C20                     u352_21:
  6663  0C20  2C27               	goto	i1l4581
  6664  0C21                     u352_20:
  6665                           	line	14
  6666                           	
  6667  0C21                     i1l4579:	
  6668  0C21  09A0               	comf	(i1___awmod@divisor),f
  6669  0C22  09A1               	comf	(i1___awmod@divisor+1),f
  6670  0C23  0AA0               	incf	(i1___awmod@divisor),f
  6671  0C24  1903               	skipnz
  6672  0C25  0AA1               	incf	(i1___awmod@divisor+1),f
  6673  0C26  2C27               	goto	i1l4581
  6674                           	
  6675  0C27                     i1l1916:	
  6676                           	line	15
  6677                           	
  6678  0C27                     i1l4581:	
  6679  0C27  0821               	movf	(i1___awmod@divisor+1),w
  6680  0C28  0420               	iorwf	(i1___awmod@divisor),w
  6681  0C29  1903               	skipnz
  6682  0C2A  2C2C               	goto	u353_21
  6683  0C2B  2C2D               	goto	u353_20
  6684  0C2C                     u353_21:
  6685  0C2C  2C63               	goto	i1l4599
  6686  0C2D                     u353_20:
  6687                           	line	16
  6688                           	
  6689  0C2D                     i1l4583:	
  6690  0C2D  01A4               	clrf	(i1___awmod@counter)
  6691  0C2E  1403               	bsf	status,0
  6692  0C2F  0DA4               	rlf	(i1___awmod@counter),f
  6693                           	line	17
  6694  0C30  2C3D               	goto	i1l4589
  6695                           	
  6696  0C31                     i1l1919:	
  6697                           	line	18
  6698                           	
  6699  0C31                     i1l4585:	
  6700  0C31  3001               	movlw	01h
  6701                           	
  6702  0C32                     u354_25:
  6703  0C32  1003               	clrc
  6704  0C33  0DA0               	rlf	(i1___awmod@divisor),f
  6705  0C34  0DA1               	rlf	(i1___awmod@divisor+1),f
  6706  0C35  3EFF               	addlw	-1
  6707  0C36  1D03               	skipz
  6708  0C37  2C32               	goto	u354_25
  6709                           	line	19
  6710                           	
  6711  0C38                     i1l4587:	
  6712  0C38  3001               	movlw	(01h)
  6713  0C39  00FD               	movwf	(??i1___awmod+0)+0
  6714  0C3A  087D               	movf	(??i1___awmod+0)+0,w
  6715  0C3B  07A4               	addwf	(i1___awmod@counter),f
  6716  0C3C  2C3D               	goto	i1l4589
  6717                           	line	20
  6718                           	
  6719  0C3D                     i1l1918:	
  6720                           	line	17
  6721                           	
  6722  0C3D                     i1l4589:	
  6723  0C3D  1FA1               	btfss	(i1___awmod@divisor+1),(15)&7
  6724  0C3E  2C40               	goto	u355_21
  6725  0C3F  2C41               	goto	u355_20
  6726  0C40                     u355_21:
  6727  0C40  2C31               	goto	i1l4585
  6728  0C41                     u355_20:
  6729  0C41  2C43               	goto	i1l4591
  6730                           	
  6731  0C42                     i1l1920:	
  6732  0C42  2C43               	goto	i1l4591
  6733                           	line	21
  6734                           	
  6735  0C43                     i1l1921:	
  6736                           	line	22
  6737                           	
  6738  0C43                     i1l4591:	
  6739  0C43  0821               	movf	(i1___awmod@divisor+1),w
  6740  0C44  0223               	subwf	(i1___awmod@dividend+1),w
  6741  0C45  1D03               	skipz
  6742  0C46  2C49               	goto	u356_25
  6743  0C47  0820               	movf	(i1___awmod@divisor),w
  6744  0C48  0222               	subwf	(i1___awmod@dividend),w
  6745  0C49                     u356_25:
  6746  0C49  1C03               	skipc
  6747  0C4A  2C4C               	goto	u356_21
  6748  0C4B  2C4D               	goto	u356_20
  6749  0C4C                     u356_21:
  6750  0C4C  2C54               	goto	i1l4595
  6751  0C4D                     u356_20:
  6752                           	line	23
  6753                           	
  6754  0C4D                     i1l4593:	
  6755  0C4D  0820               	movf	(i1___awmod@divisor),w
  6756  0C4E  02A2               	subwf	(i1___awmod@dividend),f
  6757  0C4F  0821               	movf	(i1___awmod@divisor+1),w
  6758  0C50  1C03               	skipc
  6759  0C51  03A3               	decf	(i1___awmod@dividend+1),f
  6760  0C52  02A3               	subwf	(i1___awmod@dividend+1),f
  6761  0C53  2C54               	goto	i1l4595
  6762                           	
  6763  0C54                     i1l1922:	
  6764                           	line	24
  6765                           	
  6766  0C54                     i1l4595:	
  6767  0C54  3001               	movlw	01h
  6768                           	
  6769  0C55                     u357_25:
  6770  0C55  1003               	clrc
  6771  0C56  0CA1               	rrf	(i1___awmod@divisor+1),f
  6772  0C57  0CA0               	rrf	(i1___awmod@divisor),f
  6773  0C58  3EFF               	addlw	-1
  6774  0C59  1D03               	skipz
  6775  0C5A  2C55               	goto	u357_25
  6776                           	line	25
  6777                           	
  6778  0C5B                     i1l4597:	
  6779  0C5B  3001               	movlw	low(01h)
  6780  0C5C  02A4               	subwf	(i1___awmod@counter),f
  6781  0C5D  1D03               	btfss	status,2
  6782  0C5E  2C60               	goto	u358_21
  6783  0C5F  2C61               	goto	u358_20
  6784  0C60                     u358_21:
  6785  0C60  2C43               	goto	i1l4591
  6786  0C61                     u358_20:
  6787  0C61  2C63               	goto	i1l4599
  6788                           	
  6789  0C62                     i1l1923:	
  6790  0C62  2C63               	goto	i1l4599
  6791                           	line	26
  6792                           	
  6793  0C63                     i1l1917:	
  6794                           	line	27
  6795                           	
  6796  0C63                     i1l4599:	
  6797  0C63  0825               	movf	(i1___awmod@sign),w
  6798  0C64  1D03               	skipz
  6799  0C65  2C67               	goto	u359_20
  6800  0C66  2C6D               	goto	i1l4603
  6801  0C67                     u359_20:
  6802                           	line	28
  6803                           	
  6804  0C67                     i1l4601:	
  6805  0C67  09A2               	comf	(i1___awmod@dividend),f
  6806  0C68  09A3               	comf	(i1___awmod@dividend+1),f
  6807  0C69  0AA2               	incf	(i1___awmod@dividend),f
  6808  0C6A  1903               	skipnz
  6809  0C6B  0AA3               	incf	(i1___awmod@dividend+1),f
  6810  0C6C  2C6D               	goto	i1l4603
  6811                           	
  6812  0C6D                     i1l1924:	
  6813                           	line	29
  6814                           	
  6815  0C6D                     i1l4603:	
  6816  0C6D  0823               	movf	(i1___awmod@dividend+1),w
  6817  0C6E  01A1               	clrf	(?i1___awmod+1)
  6818  0C6F  07A1               	addwf	(?i1___awmod+1)
  6819  0C70  0822               	movf	(i1___awmod@dividend),w
  6820  0C71  01A0               	clrf	(?i1___awmod)
  6821  0C72  07A0               	addwf	(?i1___awmod)
  6822                           
  6823  0C73  2C74               	goto	i1l1925
  6824                           	
  6825  0C74                     i1l4605:	
  6826                           	line	30
  6827                           	
  6828  0C74                     i1l1925:	
  6829  0C74  0008               	return
  6830                           	opt stack 0
  6831                           GLOBAL	__end_ofi1___awmod
  6832  0C75                     	__end_ofi1___awmod:
  6833 ;; =============== function i1___awmod ends ============
  6834                           
  6835                           	signat	i1___awmod,90
  6836                           	global	i1___lmul
  6837                           psect	text677,local,class=CODE,delta=2
  6838                           global __ptext677
  6839  0AB0                     __ptext677:
  6840                           
  6841 ;; *************** function i1___lmul *****************
  6842 ;; Defined at:
  6843 ;;		line 3 in file "C:\Program Files (x86)\HI-TECH Software\PICC\9.83\sources\lmul.c"
  6844 ;; Parameters:    Size  Location     Type
  6845 ;;  __lmul          4    0[COMMON] unsigned long 
  6846 ;;  __lmul          4    4[COMMON] unsigned long 
  6847 ;; Auto vars:     Size  Location     Type
  6848 ;;  __lmul          4    9[COMMON] unsigned long 
  6849 ;; Return value:  Size  Location     Type
  6850 ;;                  4    0[COMMON] unsigned long 
  6851 ;; Registers used:
  6852 ;;		wreg, status,2, status,0
  6853 ;; Tracked objects:
  6854 ;;		On entry : 0/0
  6855 ;;		On exit  : 0/0
  6856 ;;		Unchanged: 0/0
  6857 ;; Data sizes:     COMMON   BANK0   BANK1   BANK2
  6858 ;;      Params:         8       0       0       0
  6859 ;;      Locals:         4       0       0       0
  6860 ;;      Temps:          1       0       0       0
  6861 ;;      Totals:        13       0       0       0
  6862 ;;Total ram usage:       13 bytes
  6863 ;; Hardware stack levels used:    1
  6864 ;; This function calls:
  6865 ;;		Nothing
  6866 ;; This function is called by:
  6867 ;;		i1_rand
  6868 ;; This function uses a non-reentrant model
  6869 ;;
  6870                           psect	text677
  6871                           	file	"C:\Program Files (x86)\HI-TECH Software\PICC\9.83\sources\lmul.c"
  6872                           	line	3
  6873                           	global	__size_ofi1___lmul
  6874  004A                     	__size_ofi1___lmul	equ	__end_ofi1___lmul-i1___lmul
  6875                           	
  6876  0AB0                     i1___lmul:	
  6877                           	opt	stack 0
  6878                           ; Regs used in i1___lmul: [wreg+status,2+status,0]
  6879                           	line	4
  6880                           	
  6881  0AB0                     i1l4559:	
  6882  0AB0  3000               	movlw	0
  6883  0AB1  00FC               	movwf	(i1___lmul@product+3)
  6884  0AB2  3000               	movlw	0
  6885  0AB3  00FB               	movwf	(i1___lmul@product+2)
  6886  0AB4  3000               	movlw	0
  6887  0AB5  00FA               	movwf	(i1___lmul@product+1)
  6888  0AB6  3000               	movlw	0
  6889  0AB7  00F9               	movwf	(i1___lmul@product)
  6890                           
  6891  0AB8  2AB9               	goto	i1l4561
  6892                           	line	6
  6893                           	
  6894  0AB9                     i1l1782:	
  6895                           	line	7
  6896                           	
  6897  0AB9                     i1l4561:	
  6898  0AB9  1C70               	btfss	(i1___lmul@multiplier),(0)&7
  6899  0ABA  2ABC               	goto	u346_21
  6900  0ABB  2ABD               	goto	u346_20
  6901  0ABC                     u346_21:
  6902  0ABC  2AD5               	goto	i1l4565
  6903  0ABD                     u346_20:
  6904                           	line	8
  6905                           	
  6906  0ABD                     i1l4563:	
  6907  0ABD  0874               	movf	(i1___lmul@multiplicand),w
  6908  0ABE  07F9               	addwf	(i1___lmul@product),f
  6909  0ABF  0875               	movf	(i1___lmul@multiplicand+1),w
  6910  0AC0  1103               	clrz
  6911  0AC1  1803               	skipnc
  6912  0AC2  3E01               	addlw	1
  6913  0AC3  1903               	skipnz
  6914  0AC4  2AC6               	goto	u347_21
  6915  0AC5  07FA               	addwf	(i1___lmul@product+1),f
  6916  0AC6                     u347_21:
  6917  0AC6  0876               	movf	(i1___lmul@multiplicand+2),w
  6918  0AC7  1103               	clrz
  6919  0AC8  1803               	skipnc
  6920  0AC9  3E01               	addlw	1
  6921  0ACA  1903               	skipnz
  6922  0ACB  2ACD               	goto	u347_22
  6923  0ACC  07FB               	addwf	(i1___lmul@product+2),f
  6924  0ACD                     u347_22:
  6925  0ACD  0877               	movf	(i1___lmul@multiplicand+3),w
  6926  0ACE  1103               	clrz
  6927  0ACF  1803               	skipnc
  6928  0AD0  3E01               	addlw	1
  6929  0AD1  1903               	skipnz
  6930  0AD2  2AD4               	goto	u347_23
  6931  0AD3  07FC               	addwf	(i1___lmul@product+3),f
  6932  0AD4                     u347_23:
  6933                           
  6934  0AD4  2AD5               	goto	i1l4565
  6935                           	
  6936  0AD5                     i1l1783:	
  6937                           	line	9
  6938                           	
  6939  0AD5                     i1l4565:	
  6940  0AD5  3001               	movlw	01h
  6941  0AD6  00F8               	movwf	(??i1___lmul+0)+0
  6942  0AD7                     u348_25:
  6943  0AD7  1003               	clrc
  6944  0AD8  0DF4               	rlf	(i1___lmul@multiplicand),f
  6945  0AD9  0DF5               	rlf	(i1___lmul@multiplicand+1),f
  6946  0ADA  0DF6               	rlf	(i1___lmul@multiplicand+2),f
  6947  0ADB  0DF7               	rlf	(i1___lmul@multiplicand+3),f
  6948  0ADC  0BF8               	decfsz	(??i1___lmul+0)+0
  6949  0ADD  2AD7               	goto	u348_25
  6950                           	line	10
  6951                           	
  6952  0ADE                     i1l4567:	
  6953  0ADE  3001               	movlw	01h
  6954  0ADF                     u349_25:
  6955  0ADF  1003               	clrc
  6956  0AE0  0CF3               	rrf	(i1___lmul@multiplier+3),f
  6957  0AE1  0CF2               	rrf	(i1___lmul@multiplier+2),f
  6958  0AE2  0CF1               	rrf	(i1___lmul@multiplier+1),f
  6959  0AE3  0CF0               	rrf	(i1___lmul@multiplier),f
  6960  0AE4  3EFF               	addlw	-1
  6961  0AE5  1D03               	skipz
  6962  0AE6  2ADF               	goto	u349_25
  6963                           
  6964                           	line	11
  6965  0AE7  0873               	movf	(i1___lmul@multiplier+3),w
  6966  0AE8  0472               	iorwf	(i1___lmul@multiplier+2),w
  6967  0AE9  0471               	iorwf	(i1___lmul@multiplier+1),w
  6968  0AEA  0470               	iorwf	(i1___lmul@multiplier),w
  6969  0AEB  1D03               	skipz
  6970  0AEC  2AEE               	goto	u350_21
  6971  0AED  2AEF               	goto	u350_20
  6972  0AEE                     u350_21:
  6973  0AEE  2AB9               	goto	i1l4561
  6974  0AEF                     u350_20:
  6975  0AEF  2AF0               	goto	i1l4569
  6976                           	
  6977  0AF0                     i1l1784:	
  6978                           	line	12
  6979                           	
  6980  0AF0                     i1l4569:	
  6981  0AF0  087C               	movf	(i1___lmul@product+3),w
  6982  0AF1  00F3               	movwf	(?i1___lmul+3)
  6983  0AF2  087B               	movf	(i1___lmul@product+2),w
  6984  0AF3  00F2               	movwf	(?i1___lmul+2)
  6985  0AF4  087A               	movf	(i1___lmul@product+1),w
  6986  0AF5  00F1               	movwf	(?i1___lmul+1)
  6987  0AF6  0879               	movf	(i1___lmul@product),w
  6988  0AF7  00F0               	movwf	(?i1___lmul)
  6989                           
  6990  0AF8  2AF9               	goto	i1l1785
  6991                           	
  6992  0AF9                     i1l4571:	
  6993                           	line	13
  6994                           	
  6995  0AF9                     i1l1785:	
  6996  0AF9  0008               	return
  6997                           	opt stack 0
  6998                           GLOBAL	__end_ofi1___lmul
  6999  0AFA                     	__end_ofi1___lmul:
  7000 ;; =============== function i1___lmul ends ============
  7001                           
  7002                           	signat	i1___lmul,92
  7003                           	global	i1_srand
  7004                           psect	text678,local,class=CODE,delta=2
  7005                           global __ptext678
  7006  09EB                     __ptext678:
  7007                           
  7008 ;; *************** function i1_srand *****************
  7009 ;; Defined at:
  7010 ;;		line 8 in file "C:\Program Files (x86)\HI-TECH Software\PICC\9.83\sources\rand.c"
  7011 ;; Parameters:    Size  Location     Type
  7012 ;;  srand           2    0[COMMON] unsigned int 
  7013 ;; Auto vars:     Size  Location     Type
  7014 ;;		None
  7015 ;; Return value:  Size  Location     Type
  7016 ;;		None               void
  7017 ;; Registers used:
  7018 ;;		wreg, status,2, status,0
  7019 ;; Tracked objects:
  7020 ;;		On entry : 0/0
  7021 ;;		On exit  : 0/0
  7022 ;;		Unchanged: 0/0
  7023 ;; Data sizes:     COMMON   BANK0   BANK1   BANK2
  7024 ;;      Params:         2       0       0       0
  7025 ;;      Locals:         0       0       0       0
  7026 ;;      Temps:          0       0       0       0
  7027 ;;      Totals:         2       0       0       0
  7028 ;;Total ram usage:        2 bytes
  7029 ;; Hardware stack levels used:    1
  7030 ;; This function calls:
  7031 ;;		Nothing
  7032 ;; This function is called by:
  7033 ;;		i1_rand
  7034 ;; This function uses a non-reentrant model
  7035 ;;
  7036                           psect	text678
  7037                           	file	"C:\Program Files (x86)\HI-TECH Software\PICC\9.83\sources\rand.c"
  7038                           	line	8
  7039                           	global	__size_ofi1_srand
  7040  000C                     	__size_ofi1_srand	equ	__end_ofi1_srand-i1_srand
  7041                           	
  7042  09EB                     i1_srand:	
  7043                           	opt	stack 0
  7044                           ; Regs used in i1_srand: [wreg+status,2+status,0]
  7045                           	line	9
  7046                           	
  7047  09EB                     i1l4549:	
  7048  09EB  0870               	movf	(i1srand@x),w
  7049  09EC  1683               	bsf	status, 5	;RP0=1, select bank1
  7050  09ED  1303               	bcf	status, 6	;RP1=0, select bank1
  7051  09EE  00EB               	movwf	(_randx)^080h
  7052  09EF  0871               	movf	(i1srand@x+1),w
  7053  09F0  00EC               	movwf	((_randx)^080h)+1
  7054  09F1  01ED               	clrf	2+((_randx)^080h)
  7055  09F2  01EE               	clrf	3+((_randx)^080h)
  7056                           	line	10
  7057                           	
  7058  09F3                     i1l4551:	
  7059  09F3  01EF               	clrf	(_randf)^080h
  7060  09F4  1403               	bsf	status,0
  7061  09F5  0DEF               	rlf	(_randf)^080h,f
  7062                           	line	11
  7063                           	
  7064  09F6                     i1l1694:	
  7065  09F6  0008               	return
  7066                           	opt stack 0
  7067                           GLOBAL	__end_ofi1_srand
  7068  09F7                     	__end_ofi1_srand:
  7069 ;; =============== function i1_srand ends ============
  7070                           
  7071                           	signat	i1_srand,88
  7072                           	global	i1_init
  7073                           psect	text679,local,class=CODE,delta=2
  7074                           global __ptext679
  7075  0A0F                     __ptext679:
  7076                           
  7077 ;; *************** function i1_init *****************
  7078 ;; Defined at:
  7079 ;;		line 215 in file "main.c"
  7080 ;; Parameters:    Size  Location     Type
  7081 ;;		None
  7082 ;; Auto vars:     Size  Location     Type
  7083 ;;		None
  7084 ;; Return value:  Size  Location     Type
  7085 ;;                  2    0[COMMON] int 
  7086 ;; Registers used:
  7087 ;;		wreg, status,2
  7088 ;; Tracked objects:
  7089 ;;		On entry : 0/0
  7090 ;;		On exit  : 0/0
  7091 ;;		Unchanged: 0/0
  7092 ;; Data sizes:     COMMON   BANK0   BANK1   BANK2
  7093 ;;      Params:         0       0       0       0
  7094 ;;      Locals:         0       0       0       0
  7095 ;;      Temps:          0       0       0       0
  7096 ;;      Totals:         0       0       0       0
  7097 ;;Total ram usage:        0 bytes
  7098 ;; Hardware stack levels used:    1
  7099 ;; This function calls:
  7100 ;;		Nothing
  7101 ;; This function is called by:
  7102 ;;		i1_main
  7103 ;; This function uses a non-reentrant model
  7104 ;;
  7105                           psect	text679
  7106                           	file	"main.c"
  7107                           	line	215
  7108                           	global	__size_ofi1_init
  7109  0016                     	__size_ofi1_init	equ	__end_ofi1_init-i1_init
  7110                           	
  7111  0A0F                     i1_init:	
  7112                           	opt	stack 2
  7113                           ; Regs used in i1_init: [wreg+status,2]
  7114                           	line	217
  7115                           	
  7116  0A0F                     i1l4499:	
  7117                           ;main.c: 217: CM1CON0=0 ;
  7118  0A0F  1283               	bcf	status, 5	;RP0=0, select bank2
  7119  0A10  1703               	bsf	status, 6	;RP1=1, select bank2
  7120  0A11  0199               	clrf	(281)^0100h	;volatile
  7121                           	line	218
  7122                           ;main.c: 218: CM2CON0=0 ;
  7123  0A12  019A               	clrf	(282)^0100h	;volatile
  7124                           	line	219
  7125                           ;main.c: 219: ANSEL = 0;
  7126  0A13  019E               	clrf	(286)^0100h	;volatile
  7127                           	line	220
  7128                           ;main.c: 220: ANSELH = 0 ;
  7129  0A14  019F               	clrf	(287)^0100h	;volatile
  7130                           	line	221
  7131                           ;main.c: 221: OPTION=0b00000000;
  7132  0A15  1683               	bsf	status, 5	;RP0=1, select bank1
  7133  0A16  1303               	bcf	status, 6	;RP1=0, select bank1
  7134  0A17  0181               	clrf	(129)^080h	;volatile
  7135                           	line	222
  7136                           	
  7137  0A18                     i1l4501:	
  7138                           ;main.c: 222: GIE = 1;
  7139  0A18  178B               	bsf	(95/8),(95)&7
  7140                           	line	223
  7141                           	
  7142  0A19                     i1l4503:	
  7143                           ;main.c: 223: PEIE = 1;
  7144  0A19  170B               	bsf	(94/8),(94)&7
  7145                           	line	224
  7146                           	
  7147  0A1A                     i1l4505:	
  7148                           ;main.c: 224: INTE = 1;
  7149  0A1A  160B               	bsf	(92/8),(92)&7
  7150                           	line	226
  7151                           	
  7152  0A1B                     i1l4507:	
  7153                           ;main.c: 226: TRISA=0b00000100;
  7154  0A1B  3004               	movlw	(04h)
  7155  0A1C  0085               	movwf	(133)^080h	;volatile
  7156                           	line	227
  7157                           	
  7158  0A1D                     i1l4509:	
  7159                           ;main.c: 227: TRISB=0;
  7160  0A1D  0186               	clrf	(134)^080h	;volatile
  7161                           	line	228
  7162                           	
  7163  0A1E                     i1l4511:	
  7164                           ;main.c: 228: TRISC=0;
  7165  0A1E  0187               	clrf	(135)^080h	;volatile
  7166                           	line	229
  7167                           	
  7168  0A1F                     i1l4513:	
  7169                           ;main.c: 229: PORTA=0;
  7170  0A1F  1283               	bcf	status, 5	;RP0=0, select bank0
  7171  0A20  1303               	bcf	status, 6	;RP1=0, select bank0
  7172  0A21  0185               	clrf	(5)	;volatile
  7173                           	line	230
  7174                           	
  7175  0A22                     i1l4515:	
  7176                           ;main.c: 230: PORTB=0;
  7177  0A22  0186               	clrf	(6)	;volatile
  7178                           	line	231
  7179                           	
  7180  0A23                     i1l4517:	
  7181                           ;main.c: 231: PORTC=0;
  7182  0A23  0187               	clrf	(7)	;volatile
  7183                           	line	232
  7184                           	
  7185  0A24                     i1l811:	
  7186  0A24  0008               	return
  7187                           	opt stack 0
  7188                           GLOBAL	__end_ofi1_init
  7189  0A25                     	__end_ofi1_init:
  7190 ;; =============== function i1_init ends ============
  7191                           
  7192                           	signat	i1_init,90
  7193                           	global	i1_Mode2
  7194                           psect	text680,local,class=CODE,delta=2
  7195                           global __ptext680
  7196  07D8                     __ptext680:
  7197                           
  7198 ;; *************** function i1_Mode2 *****************
  7199 ;; Defined at:
  7200 ;;		line 126 in file "main.c"
  7201 ;; Parameters:    Size  Location     Type
  7202 ;;		None
  7203 ;; Auto vars:     Size  Location     Type
  7204 ;;		None
  7205 ;; Return value:  Size  Location     Type
  7206 ;;		None               void
  7207 ;; Registers used:
  7208 ;;		wreg, fsr0l, fsr0h, status,2, status,0, pclath
  7209 ;; Tracked objects:
  7210 ;;		On entry : 0/0
  7211 ;;		On exit  : 0/0
  7212 ;;		Unchanged: 0/0
  7213 ;; Data sizes:     COMMON   BANK0   BANK1   BANK2
  7214 ;;      Params:         0       0       0       0
  7215 ;;      Locals:         0       0       0       0
  7216 ;;      Temps:          3       0       0       0
  7217 ;;      Totals:         3       0       0       0
  7218 ;;Total ram usage:        3 bytes
  7219 ;; Hardware stack levels used:    2
  7220 ;; This function calls:
  7221 ;;		Nothing
  7222 ;; This function is called by:
  7223 ;;		i1_main
  7224 ;; This function uses a non-reentrant model
  7225 ;;
  7226                           psect	text680
  7227                           	file	"main.c"
  7228                           	line	126
  7229                           	global	__size_ofi1_Mode2
  7230  0022                     	__size_ofi1_Mode2	equ	__end_ofi1_Mode2-i1_Mode2
  7231                           	
  7232  07D8                     i1_Mode2:	
  7233                           	opt	stack 1
  7234                           ; Regs used in i1_Mode2: [wreg-fsr0h+status,2+status,0+pclath]
  7235                           	line	128
  7236                           	
  7237  07D8                     i1l4465:	
  7238                           ;main.c: 128: PORTC=(led0Colors[i1-1]) | (led1Colors[i1-1]);
  7239  07D8  1283               	bcf	status, 5	;RP0=0, select bank0
  7240  07D9  1303               	bcf	status, 6	;RP1=0, select bank0
  7241  07DA  0863               	movf	(_i1),w	;volatile
  7242  07DB  00F0               	movwf	(??i1_Mode2+0)+0
  7243  07DC  0770               	addwf	(??i1_Mode2+0)+0,w
  7244  07DD  3EFE               	addlw	0FEh
  7245  07DE  3E3B               	addlw	low((_led1Colors-__stringbase))
  7246  07DF  0084               	movwf	fsr0
  7247  07E0  118A  274E  118A   	fcall	stringdir
  7248  07E3  00F1               	movwf	(??i1_Mode2+1)+0
  7249  07E4  0863               	movf	(_i1),w	;volatile
  7250  07E5  00F2               	movwf	(??i1_Mode2+2)+0
  7251  07E6  0772               	addwf	(??i1_Mode2+2)+0,w
  7252  07E7  3EFE               	addlw	0FEh
  7253  07E8  3E2B               	addlw	low((_led0Colors-__stringbase))
  7254  07E9  0084               	movwf	fsr0
  7255  07EA  118A  274E  118A   	fcall	stringdir
  7256  07ED  0471               	iorwf	(??i1_Mode2+1)+0,w
  7257  07EE  0087               	movwf	(7)	;volatile
  7258                           	line	129
  7259                           ;main.c: 129: PORTB=led2Colors[i1-1];
  7260  07EF  0863               	movf	(_i1),w	;volatile
  7261  07F0  00F0               	movwf	(??i1_Mode2+0)+0
  7262  07F1  0770               	addwf	(??i1_Mode2+0)+0,w
  7263  07F2  3EFE               	addlw	0FEh
  7264  07F3  3E4B               	addlw	low((_led2Colors-__stringbase))
  7265  07F4  0084               	movwf	fsr0
  7266  07F5  118A  274E  118A   	fcall	stringdir
  7267  07F8  0086               	movwf	(6)	;volatile
  7268                           	line	130
  7269                           	
  7270  07F9                     i1l788:	
  7271  07F9  0008               	return
  7272                           	opt stack 0
  7273                           GLOBAL	__end_ofi1_Mode2
  7274  07FA                     	__end_ofi1_Mode2:
  7275 ;; =============== function i1_Mode2 ends ============
  7276                           
  7277                           	signat	i1_Mode2,88
  7278                           psect	text681,local,class=CODE,delta=2
  7279                           global __ptext681
  7280  0000                     __ptext681:
  7281                           	global	btemp
  7282  007E                     	btemp set 07Eh
  7283                           
  7284                           	DABS	1,126,2	;btemp
  7285                           	global	wtemp0
  7286  007E                     	wtemp0 set btemp


HI-TECH Software PICC Macro Assembler V9.83 build 10920 
Symbol Table                                                                                   Sun Sep 08 19:18:41 2019

                    pc 0002                     _RD 0C60                     _WR 0C61                     _i1 0063  
                   fsr 0004      ChangeLED@outColor 00C0     ChangeLED@loopLimit 00CC                    l800 074D  
                  l811 0A3A                    l821 0EAE                    l830 0F1E                    l822 0EAF  
                  l814 0E89                    l831 0F2C                    l823 0F04                    l815 0E8E  
                  l832 0F31                    l824 0EB0                    l816 0E8A                    l833 0F2D  
                  l825 0F0E                    l817 0E97                    l770 051C                    l834 0F3B  
                  l826 0F13                    l818 0E9C                    l771 053E                    l835 0F3C  
                  l827 0F0F                    l819 0E98                    l772 052F                    l836 0F3D  
                  l828 0F1D                    l773 055C                    l781 003D                    l837 0F3D  
                  l829 0F22                    l774 057E                    l782 00EA                    l775 056F  
                  l767 0517                    l783 0050                    l791 0435                    l768 05C7  
                  l776 059A                    l784 0075                    l777 05B1                    l769 05A2  
                  l785 00EA                    l778 05C7                    l794 0D4F                    l788 0A68  
                  l797 01BF                    _GIE 005F                    _RA2 002A                    _ISR 0A69  
      i1ChangeLED@port 004A                    fsr0 0004                    indf 0000           ___awmod@sign 00B3  
   ChangeLED@outColor2 00C4     ChangeLED@outColor3 00C8       i1ChangeLED@i_424 0048                   ?_ISR 0070  
                 l4311 0A3B                   l1920 0CAA                   l4401 0CD5                   l1921 0CAB  
                 l1922 0CBC                   l4403 0CDC                   l1923 0CCA                   l1915 0C85  
                 l1924 0CD5                   l1916 0C8F                   l4341 0A31                   l4333 0A25  
                 l1925 0CDC                   l1917 0CCB                   l1694 0A02                   l1782 0B05  
                 l1918 0CA5                   l4351 0A39                   l4343 0A33                   l4335 0A2E  
                 l1783 0B21                   l1919 0C99                   l1784 0B3C                   l4345 0A34  
                 l4337 0A2F                   l4353 09F7                   l1785 0B45                   l4361 0B09  
                 l1697 0B54                   l1698 0BA5                   l4347 0A35                   l4339 0A30  
                 l4355 09FF                   l4363 0B21                   l4371 0C75                   l4611 0516  
                 l4349 0A38                   l4365 0B2A                   l4357 0AFA                   l4381 0C95  
                 l4373 0C7C                   l4621 052F                   l4613 0517                   l4701 00EB  
                 l4367 0B3C                   l4359 0B05                   l4391 0CB5                   l4383 0C99  
                 l4375 0C85                   l4631 056F                   l4623 053E                   l4615 051C  
                 l4607 0506                   l4703 068D                   l4711 0E98                   l4369 0B45  
                 l4393 0CBC                   l4385 0CA0                   l4377 0C89                   l4633 057E  
                 l4625 055C                   l4617 0526                   l4609 0508                   l4641 0B46  
                 l4721 0F04                   l4713 0E9C                   l4705 0E85                   l4395 0CC3  
                 l4387 0CA5                   l4379 0C8F                   l4635 059A                   l4627 0566  
                 l4619 052C                   l4643 0B4D                   l4651 0CF4                   l4731 0F2D  
                 l4723 0F0F                   l4715 0EA4                   l4707 0E8A                   l4389 0CAB  
                 l4397 0CCB                   l4637 05B1                   l4629 056C                   l4645 0BA5  
                 l4661 0D40                   l4653 0D03                   l4733 0F31                   l4725 0F13  
                 l4717 0EB0                   l4709 0E8E                   l4399 0CCF                   l4639 05B9  
                 l4655 0D14                   l4647 0CDD                   l4671 003C                   l4663 0013  
                 l4727 0F1E                   l4719 0EF4                   l4657 0D29                   l4649 0CEE  
                 l4681 0067                   l4673 003D                   l4665 0024                   l4729 0F22  
                 l4659 0D3A                   l4683 0075                   l4675 0041                   l4667 002A  
                 l4691 038C                   l4685 00D4                   l4677 004F                   l4669 002E  
                 l4693 03B6                   l4687 00DC                   l4679 0050                   l4695 03D9  
                 l4697 03FA                   l4689 0369                   l4699 0424                   u3200 0C95  
                 u3201 0C94                   u3130 0B09                   u3131 0B08                   u3220 0CA9  
                 u3141 0B12                   u3221 0CA8                   u3142 0B19                   u3230 0CB5  
                 u3143 0B20                   u3231 0CB4                   u3215 0C9A                   u3170 0B3B  
                 u3250 0CC9                   u3171 0B3A                   u3155 0B23                   u3251 0CC8  
                 u3235 0CB1                   u3260 0CCF                   u3180 0C7C                   u3165 0B2B  
                 u3245 0CBD                   u3181 0C7B                   u3190 0C89                   u3191 0C88  
                 u3600 0515                   u3601 0514                   u3610 055B                   u3611 055A  
                 u3620 0599                   u3700 0074                   u3621 0598                   u3605 0511  
                 u3701 0073                   u3630 05B0                   u3710 00E9                   u3631 05AF  
                 u3615 0557                   u3711 00E8                   u3640 05C6                   u3720 0E96  
                 u3641 05C5                   u3625 0595                   u3705 0070                   u3721 0E95  
                 u3650 0B4D                   u3730 0EA4                   u3635 05AC                   u3651 0B4C  
                 u3715 00E5                   u3731 0EA3                   _PEIE 005E                   u3660 0B7A  
                 u3740 0EAD                   u3645 05C2                   u3661 0B7B                   u3741 0EAC  
                 _INTE 005C                   u3670 0B9C                   u3662 0B80                   u3750 0F0D  
                 _INTF 0059                   u3663 0B81                   u3807 0CFC                   u3751 0F0C  
                 u3680 003B                   u3760 0F1C                   u3817 0D22                   u3681 003A  
                 u3761 0F1B                   u3690 004E                   u3770 0F2B                   u3675 0B97  
                 u3827 0D48                   u3691 004D                   u3771 0F2A                   u3780 0F3A  
                 u3837 0533                   u3685 0037                   u3781 0F39                   u3847 0573  
                 u3695 004A                   u3797 0058                   _WREN 0C62       i1ChangeLED@port2 0031  
      __end_ofi1_Mode1 0369        __end_ofi1_Mode2 07FA        __end_ofi1_Mode3 0503        __end_ofi1_Mode4 0C0D  
      __end_ofi1_Mode5 0295        __end_ofi1_Mode6 1000                   _red0 07C6                   _red1 07C8  
                 _red2 07CA                   _main 0E85                   _init 0A25                   _rand 0B46  
                 btemp 007E                   start 0011            main@string1 00E7            main@string3 00E9  
      __end_ofi1_srand 09F7                  ??_ISR 005D                  ?_main 0070                  ?_init 0070  
                ?_rand 00B4                  _EEADR 010D        __end_of___awmod 0CDD                  _CARRY 0018  
                _ANSEL 011E                  i1l800 0FFF                  i1l811 0A24                  i1l803 0AA3  
                i1l804 0A81                  i1l821 0DF7                  i1l805 0A98                  i1l830 0E65  
                i1l822 0DF8                  i1l814 0DD2                  i1l806 0A8E                  i1l831 0E73  
                i1l823 0E4B                  i1l815 0DD7                  i1l807 0A9E                  i1l832 0E78  
                i1l824 0DF9                  i1l816 0DD3                  i1l808 0AA3                  i1l833 0E74  
                i1l825 0E55                  i1l817 0DE0                  i1l770 05E1                  i1l834 0E82  
                i1l826 0E5A                  i1l818 0DE5                  i1l771 0603                  i1l835 0E83  
                i1l827 0E56                  i1l819 0DE1                  i1l772 05F4                  i1l836 0E84  
                i1l828 0E64                  i1l773 0621                  i1l781 02BB                  i1l837 0E84  
                i1l829 0E69                  i1l774 0643                  i1l782 0368                  i1l775 0634  
                i1l767 05DC                  i1l783 02CE                  i1l791 0502                  i1l768 068C  
                i1l776 065F                  i1l784 02F3                  i1l777 0676                  i1l769 0667  
                i1l785 0368                  i1l778 068C                  i1l794 0C0C                  i1l788 07F9  
                i1l797 0294                  _PORTA 0005                  _PORTB 0006                  _PORTC 0007  
                _TRISA 0085                  _TRISB 0086                  _TRISC 0087    ___lmul@multiplicand 00A4  
                _Mode1 0013                  _Mode2 0A3B                  _Mode3 0369                  _Mode4 0CDD  
                _Mode5 00EB                  _Mode6 068D         i1___awmod@sign 0025                  _blue0 07AE  
                _blue1 07B0                  _blue2 07B2                  _cyan0 07B4                  _cyan1 07B6  
                _cyan2 07B8                  _randf 00EF                  _randx 00EB                  _srand 09F7  
         Mode3@string1 00DB           Mode3@string2 00E0           Mode3@string3 00DD       __end_ofi1___lmul 0AFA  
                pclath 000A                  status 0003                  wtemp0 007E     __size_ofi1___awmod 0068  
         __end_of_main 0F3F     __size_of_ChangeLED 00C5           __end_of_init 0A3B           __end_of_rand 0BA6  
  i1___lmul@multiplier 0070                 ??_main 00E6                 ??_init 00A0                 ??_rand 00B6  
               ?_Mode1 0070                 ?_Mode2 0070                 ?_Mode3 00DB                 ?_Mode4 0070  
               ?_Mode5 0070                 ?_Mode6 0070           ?i1_ChangeLED 0031              ??i1_Mode1 004D  
            ??i1_Mode2 0070              ??i1_Mode3 0051              ??i1_Mode4 0070              ??i1_Mode5 004D  
            ??i1_Mode6 004D                 _EEDATA 010C                 _EECON1 018C                 _EECON2 018D  
   i1ChangeLED@inColor 0034                 ?_srand 00A0                 _ANSELH 011F                 i1l1920 0C42  
               i1l1921 0C43                 i1l4321 0A7E                 i1l4313 0A69                 i1l1922 0C54  
               i1l1923 0C62                 i1l1915 0C1D                 i1l4411 05DC                 i1l4331 0A9F  
               i1l4323 0A81                 i1l4315 0A6D                 i1l1924 0C6D                 i1l1916 0C27  
               i1l4501 0A18                 i1l1925 0C74                 i1l1917 0C63                 i1l4421 0603  
               i1l4413 05E1                 i1l4405 05CB                 i1l4325 0A8A                 i1l4317 0A6F  
               i1l1694 09F6                 i1l1782 0AB9                 i1l1918 0C3D                 i1l4511 0A1E  
               i1l4503 0A19                 i1l1783 0AD5                 i1l1919 0C31                 i1l4431 0643  
               i1l4423 0621                 i1l4415 05EB                 i1l4407 05CD                 i1l4327 0A8E  
               i1l4319 0A77                 i1l1784 0AF0                 i1l4513 0A1F                 i1l4505 0A1A  
               i1l1785 0AF9                 i1l4601 0C67                 i1l4433 065F                 i1l4425 062B  
               i1l4417 05F1                 i1l4409 05DB                 i1l1697 0D5E                 i1l4441 02A4  
               i1l4521 0DD3                 i1l4329 0A98                 i1l1698 0DCD                 i1l4515 0A22  
               i1l4507 0A1B                 i1l4603 0C6D                 i1l4435 0676                 i1l4427 0631  
               i1l4419 05F4                 i1l4451 02BF                 i1l4443 02AA                 i1l4531 0DF9  
               i1l4523 0DD7                 i1l4517 0A23                 i1l4509 0A1D                 i1l4605 0C74  
               i1l4437 067E                 i1l4429 0634                 i1l4461 0352                 i1l4453 02CD  
               i1l4445 02AC                 i1l4541 0E65                 i1l4533 0E3B                 i1l4525 0DE1  
               i1l4551 09F3                 i1l4463 035A                 i1l4455 02CE                 i1l4447 02BA  
               i1l4439 0295                 i1l4471 0483                 i1l4543 0E69                 i1l4535 0E4B  
               i1l4527 0DE5                 i1l4519 0DCE                 i1l4465 07D8                 i1l4561 0AB9  
               i1l4481 0BB5                 i1l4553 0D50                 i1l4457 02E5                 i1l4449 02BB  
               i1l4473 04A6                 i1l4545 0E74                 i1l4537 0E56                 i1l4529 0DED  
               i1l4571 0AF9                 i1l4563 0ABD                 i1l4491 0BF9                 i1l4483 0BBB  
               i1l4555 0D57                 i1l4459 02F3                 i1l4475 04C7                 i1l4467 0436  
               i1l4547 0E78                 i1l4539 0E5A                 i1l4549 09EB                 i1l4565 0AD5  
               i1l4581 0C27                 i1l4573 0C0D                 i1l4493 0BFF                 i1l4485 0BC8  
               i1l4557 0DCD                 i1l4477 04F1                 i1l4469 0459                 i1l4567 0ADE  
               i1l4559 0AB0                 i1l4591 0C43                 i1l4583 0C2D                 i1l4575 0C14  
               i1l4487 0BD7                 i1l4479 0BA6                 i1l4495 01C0                 i1l4569 0AF0  
               i1l4593 0C4D                 i1l4585 0C31                 i1l4577 0C1D                 i1l4489 0BEA  
               i1l4497 0F3F                 i1l4499 0A0F                 i1l4595 0C54                 i1l4587 0C38  
               i1l4579 0C21                 i1l4597 0C5B                 i1l4589 0C3D                 i1l4599 0C63  
               u310_20 0A6D                 u310_21 0A6C                 u311_20 0A7E                 u311_21 0A7D  
               u312_20 0A9E                 u312_21 0A9D                 u330_20 0675                 u330_21 0674  
               u330_25 0671                 u331_20 068B                 u331_21 068A                 u331_25 0687  
               u332_20 02B9                 u340_20 0E63                 u332_21 02B8                 u340_21 0E62  
               u332_25 02B5                 u333_20 02CC                 u341_20 0E72                 u333_21 02CB  
               u341_21 0E71                 u333_25 02C8                 u350_20 0AEF                 u334_20 02F2  
               u342_20 0E81                 u350_21 0AEE                 u334_21 02F1                 u342_21 0E80  
               u334_25 02EE                 u351_20 0C14                 u327_20 05DA                 u343_20 0D57  
               u335_20 0367                 u351_21 0C13                 u327_21 05D9                 u343_21 0D56  
               u335_21 0366                 u327_25 05D6                 u335_25 0363                 u352_20 0C21  
               u328_20 0620                 u344_20 0D86                 u336_20 0DDF                 u352_21 0C20  
               u328_21 061F                 u344_21 0D87                 u336_21 0DDE                 u344_22 0D8C  
               u344_23 0D8D                 u328_25 061C                 u353_20 0C2D                 u329_20 065E  
               u345_20 0DC4                 u337_20 0DED                 u353_21 0C2C                 u329_21 065D  
               u337_21 0DEC                 u329_25 065A                 u345_25 0DBF                 u346_20 0ABD  
               u338_20 0DF6                 u346_21 0ABC                 u338_21 0DF5                 u354_25 0C32  
               u355_20 0C41                 u339_20 0E54                 u347_21 0AC6                 u355_21 0C40  
               u339_21 0E53                 u347_22 0ACD                 u347_23 0AD4                 u356_20 0C4D  
               u356_21 0C4C                 u348_25 0AD7                 u356_25 0C49                 u349_25 0ADF  
               u357_25 0C55                 u358_20 0C61                 u358_21 0C60                 u390_27 0C05  
               u359_20 0C67                 u391_27 05F8                 u392_27 0638              ??i1_srand 0072  
               u385_27 0A85                 u386_27 0A92                 u387_27 02D6                 u388_27 0BC1  
               u389_27 0BE3         i1Mode3@string1 004D         i1Mode3@string2 0052         i1Mode3@string3 004F  
               _OPTION 0081                 Mode1@i 00E2                 Mode1@j 00E4                 i1_main 0DCE  
               i1_init 0A0F                 i1_rand 0D50                 ___lmul 0AFA              ??___awmod 00B1  
               _green0 07BA                 _green1 07BC                 _green2 07BE        ___awmod@divisor 00AD  
      ___awmod@counter 00B2                 _white0 07CC                 _white1 07CE                 _white2 07D0  
    __end_ofi1___awmod 0C75                 saved_w 007E                 srand@x 00A0      __end_of_ChangeLED 05C8  
        __end_of_Mode1 00EB          __end_of_Mode2 0A69          __end_of_Mode3 0436          __end_of_Mode4 0D50  
        __end_of_Mode5 01C0          __end_of_Mode6 074E         __pcstackCOMMON 0070          __end_of_srand 0A03  
            ?i1___lmul 0070                ??_Mode1 00DB                ??_Mode2 00A0                ??_Mode3 00DF  
              ??_Mode4 00A0                ??_Mode5 00DB                ??_Mode6 00DB             _led0Colors 077E  
           _led1Colors 078E             _led2Colors 079E                ??_srand 00A2             __pbssBANK0 0063  
           __pbssBANK1 00EB                ?i1_main 0070                ?i1_init 0070                ?i1_rand 0026  
           __pmaintext 0E85                ?___lmul 00A0             __pintentry 0004                _CM1CON0 0119  
              _CM2CON0 011A         ___lmul@product 00A9    i1ChangeLED@inColor2 0038    i1ChangeLED@inColor3 003C  
           ??i1___lmul 0078                i1_Mode1 0295                i1_Mode2 07D8                i1_Mode3 0436  
              i1_Mode4 0BA6                i1_Mode5 01C0                i1_Mode6 0F3F   __size_ofi1_ChangeLED 00C5  
              i1_srand 09EB    i1ChangeLED@outColor 0032        __size_ofi1_main 00B7        __size_ofi1_init 0016  
      __size_ofi1_rand 007E      i1Mode3@newstring1 0054      i1Mode3@newstring3 0056        __size_of___lmul 004C  
              ___awmod 0C75           __size_of_ISR 0047       ___awmod@dividend 00AF                _yellow0 07D2  
              _yellow1 07D4                _yellow2 07D6                _purple0 07C0                _purple1 07C2  
              _purple2 07C4   end_of_initialization 0A0C             _timesArray 0754              i1___awmod 0C0D  
            _ChangeLED 0503         __end_ofi1_main 0E85         __end_ofi1_init 0A25         __end_ofi1_rand 0DCE  
       __end_of___lmul 0B46  i1___lmul@multiplicand 0074      __size_ofi1___lmul 004A    start_initialization 0A03  
          __end_of_ISR 0AB0             ?i1___awmod 0020             ?_ChangeLED 00BF               ??i1_main 0058  
             ??i1_init 0070               ??i1_rand 0028          i1main@string1 0059          i1main@string3 005B  
             ??___lmul 00A8     i1___awmod@dividend 0022           i1ChangeLED@i 0046           i1ChangeLED@j 0044  
         i1ChangeLED@k 004B          __pcstackBANK0 0020          __pcstackBANK1 00A0               ?i1_Mode1 0070  
             ?i1_Mode2 0070               ?i1_Mode3 004D               ?i1_Mode4 0070               ?i1_Mode5 0070  
             ?i1_Mode6 0070       i1___lmul@product 0079               ?i1_srand 0070               ?___awmod 00AD  
            __ptext660 0B46              __ptext661 0503              __ptext670 01C0              __ptext662 0C75  
            __ptext671 0436              __ptext663 0AFA              __ptext655 068D              __ptext680 07D8  
            __ptext672 0295              __ptext664 09F7              __ptext656 00EB              __ptext681 0000  
            __ptext673 0D50              __ptext665 0A25              __ptext657 0369              __ptext674 0BA6  
            __ptext666 0A3B              __ptext658 0013              __ptext675 05C8              __ptext667 0A69  
            __ptext659 0CDD              __ptext676 0C0D              __ptext668 0DCE              __ptext677 0AB0  
            __ptext669 0F3F              __ptext678 09EB              __ptext679 0A0F              __pstrings 074E  
       __size_of_Mode1 00D8         __size_of_Mode2 002E         __size_of_Mode3 00CD         __size_of_Mode4 0073  
       __size_of_Mode5 00D5         __size_of_Mode6 00C1          ??i1_ChangeLED 0040            ??i1___awmod 007D  
       __size_of_srand 000C      interrupt_function 0004            ??_ChangeLED 00CE               i1Mode1@i 0054  
             i1Mode1@j 0056         ChangeLED@i_424 00D6   i1ChangeLED@loopLimit 003E         ChangeLED@port2 00BF  
             i1___lmul 0AB0            __stringbase 0753   i1ChangeLED@outColor2 0036   i1ChangeLED@outColor3 003A  
    ___lmul@multiplier 00A0       __size_ofi1_Mode1 00D4       __size_ofi1_Mode2 0022       __size_ofi1_Mode3 00CD  
     __size_ofi1_Mode4 0067       __size_ofi1_Mode5 00D5       __size_ofi1_Mode6 00C1               i1srand@x 0070  
  __end_ofi1_ChangeLED 068D       __size_ofi1_srand 000C      i1___awmod@divisor 0020      i1___awmod@counter 0024  
     __size_of___awmod 0068        Mode3@newstring1 00E2        Mode3@newstring3 00E4          __size_of_main 00BA  
        __size_of_init 0016          __size_of_rand 0060             ChangeLED@i 00D4             ChangeLED@j 00D2  
           ChangeLED@k 00D9          ChangeLED@port 00D8            i1_ChangeLED 05C8               intlevel1 0000  
            stringcode 074E               stringdir 074E               stringtab 074E      ChangeLED@inColor2 00C6  
    ChangeLED@inColor3 00CA       ChangeLED@inColor 00C2  
